ccopy_reg
_reconstructor
p0
(cpysb.core
ComponentSet
p1
c__builtin__
object
p2
Ntp3
Rp4
(dp5
S'_index_map'
p6
(dp7
S'catalyze_ApopC3pro_to_Apop_C3A_kc'
p8
I158
sS'assemble_pore_sequential_Bak_3_kr'
p9
I132
sS'equilibrate_BclxLC_to_BclxLM_kf'
p10
I95
sS'bind_FasANY_FADD_kf'
p11
I2
sS'k14a'
p12
I52
sS'bind_RIP1unmod_Bidpo4_kf'
p13
I64
sS'bind_C3A_C6pro_to_C3AC6pro_kr'
p14
I178
sS'bind_FasANY_FADD_kr'
p15
I3
sS'catalyze_C8AC3pro_to_C8A_C3A_kc'
p16
I165
sS'bind_RIP1unmod_Bidpo4_kr'
p17
I65
sS'bind_C3A_C6pro_to_C3AC6pro_kf'
p18
I177
sS'bind_BaxA_Bcl2_kr'
p19
I116
sS'bind_C3A_PARPU_to_C3APARPU_kf'
p20
I169
sS'bind_BidM_BclxLM_kr'
p21
I106
sS'bind_BidM_BakM_to_BidMBakM_kr'
p22
I101
sS'pore_transport_complex_BaxA_4_CytoCM_kr'
p23
I136
sS'pore_transport_dissociate_BakA_4_SmacC_kc'
p24
I146
sS'bind_BaxA_Bcl2_kf'
p25
I115
sS'bind_BidM_BclxLM_kf'
p26
I105
sS'bind_BidM_BakM_to_BidMBakM_kf'
p27
I100
sS'pore_transport_complex_BaxA_4_CytoCM_kf'
p28
I135
sS'pore_transport_complex_BakA_4_SmacM_kr'
p29
I145
sS'bind_BakA_BclxLM_kr'
p30
I120
sS'bind_FADDANY_flip_L_kr'
p31
I18
sS'equilibrate_BaxC_to_BaxM_kf'
p32
I93
sS'catalyze_MLKLactiveMLKLunmod_to_MLKLactive_MLKLactive_kc'
p33
I87
sS'k5'
p34
I34
sS'k13a'
p35
I50
sS'bind_BakA_Mcl1_kf'
p36
I121
sS'bind_FADDANY_flip_L_kf'
p37
I17
sS'equilibrate_BaxC_to_BaxM_kr'
p38
I94
sS'pore_transport_dissociate_BaxA_4_SmacC_kc'
p39
I140
sS'catalyze_C3AC6pro_to_C3A_C6A_kc'
p40
I179
sS'kc_c8'
p41
I14
sS'bind_FADDANYANY_flip_S_kf'
p42
I12
sS'bind_C8A_RIP1unmod_to_C8ARIP1unmod_kf'
p43
I68
sS'bind_TRADDactive_RIP1deub_kf'
p44
I40
sS'Kd2_RIP1_FADD'
p45
I44
sS'bind_FADDANY_proC8_kf'
p46
I6
sS'k12a'
p47
I48
sS'catalyze_C8ARIP1deub_to_C8A_RIP1trunc_kc'
p48
I73
sS'bind_C8A_RIP3unmod_to_C8ARIP3unmod_kf'
p49
I74
sS'bind_TRADDactive_RIP1deub_kr'
p50
I41
sS'bind_FADDANY_proC8_kr'
p51
I7
sS'bind_FADDANYANY_flip_S_kr'
p52
I13
sS'bind_C8A_RIP1unmod_to_C8ARIP1unmod_kr'
p53
I69
sS'bind_BakA_Mcl1_kr'
p54
I122
sS'bind_C8A_RIP3unmod_to_C8ARIP3unmod_kr'
p55
I75
sS'bind_C8A_BidU_to_C8ABidU_kr'
p56
I78
sS'bind_C8A_BidU_to_C8ABidU_kf'
p57
I77
sS'bind_FADD_RIP1deub_kr'
p58
I39
sS'bind_CytoCA_ApafI_to_CytoCAApafI_kr'
p59
I152
sS'bind_BidM_BaxM_to_BidMBaxM_kr'
p60
I98
sS'bind_FADD_RIP1deub_kf'
p61
I38
sS'bind_CytoCA_ApafI_to_CytoCAApafI_kf'
p62
I151
sS'k16a'
p63
I58
sS'assemble_pore_sequential_Bax_4_kf'
p64
I127
sS'pore_transport_dissociate_BaxA_4_CytoCC_kc'
p65
I137
sS'bind_BidM_BaxM_to_BidMBaxM_kf'
p66
I97
sS'assemble_pore_sequential_Bak_2_kr'
p67
I130
sS'bind_FADDANY_flip_S_kr'
p68
I16
sS'bind_RIP1deub_Bidpo4_kr'
p69
I67
sS'catalyze_C8ARIP1unmod_to_C8A_RIP1trunc_kc'
p70
I70
sS'assemble_pore_sequential_Bak_2_kf'
p71
I129
sS'bind_FADDANY_flip_S_kf'
p72
I15
sS'assemble_pore_sequential_Bak_3_kf'
p73
I131
sS'bind_SmacA_XIAP_kf'
p74
I161
sS'bind_NoxaM_Mcl1M_kf'
p75
I113
sS'k12'
p76
I47
sS'bind_C3A_MLKLunmod_to_C3AMLKLunmod_kf'
p77
I88
sS'k15a'
p78
I57
sS'bind_FasANY_FADDANYANY_kr'
p79
I5
sS'kc52'
p80
I176
sS'bind_NoxaM_Mcl1M_kr'
p81
I114
sS'bind_XIAP_C3A_to_XIAPC3A_kr'
p82
I167
sS'Bid_Flip_cat'
p83
I26
sS'bind_FasANY_FADDANYANY_kf'
p84
I4
sS'catalyze_XIAPC3A_to_XIAP_C3ub_kc'
p85
I168
sS'catalyze_C3APARPU_to_C3A_PARPC_kc'
p86
I171
sS'bind_C3A_MLKLunmod_to_C3AMLKLunmod_kr'
p87
I89
sS'bind_FADD_TRADDactive_kf'
p88
I36
sS'assemble_pore_sequential_Bax_4_kr'
p89
I128
sS'bind_FADDANYANY_flip_L_kr'
p90
I11
sS'k14'
p91
I51
sS'bind_Apop_C3pro_to_ApopC3pro_kf'
p92
I156
sS'bind_FADDANYANY_flip_L_kf'
p93
I10
sS'kc_rip1'
p94
I42
sS'bind_FADD_TRADDactive_kr'
p95
I37
sS'bind_Apop_C3pro_to_ApopC3pro_kr'
p96
I157
sS'convert_ApafA_C9_to_Apop_kf'
p97
I154
sS'bind_BadM_BclxLM_kf'
p98
I111
sS'bind_FADDANYANY_proC8_kr'
p99
I9
sS'assemble_pore_sequential_Bak_4_kf'
p100
I133
sS'assemble_pore_sequential_Bax_2_kr'
p101
I124
sS'bind_FADDANYANY_proC8_kf'
p102
I8
sS'catalyze_C8ABidU_to_C8A_BidT_kc'
p103
I79
sS'bind_BadM_BclxLM_kr'
p104
I112
sS'assemble_pore_sequential_Bak_4_kr'
p105
I134
sS'k18a'
p106
I60
sS'k13'
p107
I49
sS'bind_RIP1po4_MLKLunmod_to_RIP1po4MLKLunmod_kf'
p108
I82
sS'k11'
p109
I45
sS'bind_BidM_Bcl2_kr'
p110
I104
sS'k17'
p111
I55
sS'k16'
p112
I54
sS'k15'
p113
I53
sS'deg_FlipL'
p114
I22
sS'bind_CompImod_RIP1deub_kr'
p115
I33
sS'pore_transport_complex_BaxA_4_SmacM_kr'
p116
I139
sS'k19'
p117
I80
sS'k18'
p118
I56
sS'bind_BaxA_BclxLM_kr'
p119
I118
sS'bind_BadM_Bcl2_kf'
p120
I109
sS'kr51'
p121
I173
sS'kr52'
p122
I175
sS'Bid_Flip_Bindr'
p123
I25
sS'bind_SmacA_XIAP_kr'
p124
I162
sS'bind_RIP1po4_MLKLunmod_to_RIP1po4MLKLunmod_kr'
p125
I83
sS'bind_BidM_Bcl2_kf'
p126
I103
sS'deg_FlipS'
p127
I23
sS'bind_BadM_Bcl2_kr'
p128
I110
sS'bind_CompImod_RIP1deub_kf'
p129
I32
sS'pore_transport_complex_BaxA_4_SmacM_kf'
p130
I138
sS'convert_ApafA_C9_to_Apop_kr'
p131
I155
sS'catalyze_BidMBaxM_to_BidM_BaxA_kc'
p132
I99
sS'equilibrate_CytoCC_to_CytoCA_kr'
p133
I150
sS'k17a'
p134
I59
sS'bind_BaxA_BclxLM_kf'
p135
I117
sS'catalyze_C3AMLKLunmod_to_C3A_MLKLinactive_kc'
p136
I90
sS'catalyze_BidMBakM_to_BidM_BakA_kc'
p137
I102
sS'assemble_pore_sequential_Bax_2_kf'
p138
I123
sS'pore_transport_dissociate_BakA_4_CytoCC_kc'
p139
I143
sS'equilibrate_CytoCC_to_CytoCA_kf'
p140
I149
sS'bind_C8A_RIP1deub_to_C8ARIP1deub_kf'
p141
I71
sS'bind_BidK_BidU_to_BidKBidU_kr'
p142
I62
sS'bind_CompIunmod_RIP1unmod_kf'
p143
I27
sS'equilibrate_SmacC_to_SmacA_kf'
p144
I147
sS'bind_C3A_PARPU_to_C3APARPU_kr'
p145
I170
sS'bind_BidK_BidU_to_BidKBidU_kf'
p146
I61
sS'bind_C8A_RIP1deub_to_C8ARIP1deub_kr'
p147
I72
sS'equilibrate_SmacC_to_SmacA_kr'
p148
I148
sS'bind_CompIunmod_RIP1unmod_kr'
p149
I28
sS'bind_BidM_Mcl1M_kr'
p150
I108
sS'catalyze_C8ARIP3unmod_to_C8A_RIP3trunc_kc'
p151
I76
sS'bind_C8A_C3pro_to_C8AC3pro_kr'
p152
I164
sS'bind_XIAP_C3A_to_XIAPC3A_kf'
p153
I166
sS'equilibrate_BclxLC_to_BclxLM_kr'
p154
I96
sS'bind_BidM_Mcl1M_kf'
p155
I107
sS'bind_Apop_XIAP_kr'
p156
I160
sS'Ka2_RIP1_FADD'
p157
I43
sS'bind_BakA_BclxLM_kf'
p158
I119
sS'equilibrate_BidT_to_BidM_kr'
p159
I92
sS'pore_transport_complex_BakA_4_CytoCM_kf'
p160
I141
sS'bind_C8A_C3pro_to_C8AC3pro_kf'
p161
I163
sS'k3'
p162
I29
sS'equilibrate_BidT_to_BidM_kf'
p163
I91
sS'k7'
p164
I31
sS'k6'
p165
I30
sS'catalyze_RIP1po4MLKLunmod_to_RIP1po4_MLKLactive_kc'
p166
I84
sS'catalyze_CytoCAApafI_to_CytoCA_ApafA_kc'
p167
I153
sS'k8'
p168
I35
sS'Deg_flip'
p169
I21
sS'pore_transport_complex_BakA_4_CytoCM_kr'
p170
I142
sS'bind_MLKLactive_MLKLunmod_to_MLKLactiveMLKLunmod_kf'
p171
I85
sS'k11a'
p172
I46
sS'pore_transport_complex_BakA_4_SmacM_kf'
p173
I144
sS'NFkB_FlipS'
p174
I20
sS'bind_RIP1deub_Bidpo4_kf'
p175
I66
sS'NFkB_FlipL'
p176
I19
sS'bind_MLKLactive_MLKLunmod_to_MLKLactiveMLKLunmod_kr'
p177
I86
sS'k19a'
p178
I81
sS'bind_FasL_Fas_kf'
p179
I0
sS'assemble_pore_sequential_Bax_3_kr'
p180
I126
sS'Bid_Flip_Bindf'
p181
I24
sS'catalyze_BidKBidU_to_BidK_Bidpo4_kc'
p182
I63
sS'kf51'
p183
I172
sS'kf52'
p184
I174
sS'bind_FasL_Fas_kr'
p185
I1
sS'bind_Apop_XIAP_kf'
p186
I159
sS'assemble_pore_sequential_Bax_3_kf'
p187
I125
ssS'_elements'
p188
(lp189
g0
(cpysb.core
Parameter
p190
g2
Ntp191
Rp192
(dp193
S'value'
p194
cnumpy.core.multiarray
scalar
p195
(cnumpy
dtype
p196
(S'f8'
p197
I0
I1
tp198
Rp199
(I3
S'<'
p200
NNNI-1
I-1
I0
tp201
bS'\xcb\xfe\xbc\xc9"\x05d?'
p202
tp203
Rp204
sS'name'
p205
g179
sS'_export'
p206
I01
sbag0
(g190
g2
Ntp207
Rp208
(dp209
g194
g195
(g199
S'\xcds\xa9?A \xc0>'
p210
tp211
Rp212
sg205
g185
sg206
I01
sbag0
(g190
g2
Ntp213
Rp214
(dp215
g194
g195
(g199
S'\x87f<h\xda\x7f^>'
p216
tp217
Rp218
sg205
g11
sg206
I01
sbag0
(g190
g2
Ntp219
Rp220
(dp221
g194
g195
(g199
S'y\x15P\x19\xf6l2?'
p222
tp223
Rp224
sg205
g15
sg206
I01
sbag0
(g190
g2
Ntp225
Rp226
(dp227
g194
g195
(g199
S'\xf1\xe8\x18s\xd5+|='
p228
tp229
Rp230
sg205
g84
sg206
I01
sbag0
(g190
g2
Ntp231
Rp232
(dp233
g194
g195
(g199
S'\xbd\xef\xc5\xde*\x03c?'
p234
tp235
Rp236
sg205
g79
sg206
I01
sbag0
(g190
g2
Ntp237
Rp238
(dp239
g194
g195
(g199
S'\xe3\xf2\xc4/S\x11\xbb>'
p240
tp241
Rp242
sg205
g46
sg206
I01
sbag0
(g190
g2
Ntp243
Rp244
(dp245
g194
g195
(g199
S'\xff\xc7\x1f\x9e\x01\x06\xcf?'
p246
tp247
Rp248
sg205
g51
sg206
I01
sbag0
(g190
g2
Ntp249
Rp250
(dp251
g194
g195
(g199
S'F\x8b1\x87\x1b\x96\x1a?'
p252
tp253
Rp254
sg205
g102
sg206
I01
sbag0
(g190
g2
Ntp255
Rp256
(dp257
g194
g195
(g199
S'\x9e\x9d&\x7f\x01|-?'
p258
tp259
Rp260
sg205
g99
sg206
I01
sbag0
(g190
g2
Ntp261
Rp262
(dp263
g194
g195
(g199
S'\xff\xe1[\xe7\xdc]\x1d?'
p264
tp265
Rp266
sg205
g93
sg206
I01
sbag0
(g190
g2
Ntp267
Rp268
(dp269
g194
g195
(g199
S'\xa0\x9dz\xa7\x12\xb0\x11?'
p270
tp271
Rp272
sg205
g90
sg206
I01
sbag0
(g190
g2
Ntp273
Rp274
(dp275
g194
g195
(g199
S'\xe5\x19\\\x91B0\xd0>'
p276
tp277
Rp278
sg205
g42
sg206
I01
sbag0
(g190
g2
Ntp279
Rp280
(dp281
g194
g195
(g199
S'\xf0\xc6x\xdfJ\x94\x16@'
p282
tp283
Rp284
sg205
g52
sg206
I01
sbag0
(g190
g2
Ntp285
Rp286
(dp287
g194
g195
(g199
S'n\xf4\x04X\x9e\x12\x13?'
p288
tp289
Rp290
sg205
g41
sg206
I01
sbag0
(g190
g2
Ntp291
Rp292
(dp293
g194
g195
(g199
S'm\x8e\x0b\xcb\xbd\x9a\x94>'
p294
tp295
Rp296
sg205
g72
sg206
I01
sbag0
(g190
g2
Ntp297
Rp298
(dp299
g194
g195
(g199
S'\x98~F2\xa8\x80u?'
p300
tp301
Rp302
sg205
g68
sg206
I01
sbag0
(g190
g2
Ntp303
Rp304
(dp305
g194
g195
(g199
S'\xd4W\r\xb4z\x04Z>'
p306
tp307
Rp308
sg205
g37
sg206
I01
sbag0
(g190
g2
Ntp309
Rp310
(dp311
g194
g195
(g199
S'\x86%\x18\xb3)\x80\xd9?'
p312
tp313
Rp314
sg205
g31
sg206
I01
sbag0
(g190
g2
Ntp315
Rp316
(dp317
g194
g195
(g199
S'\xd4\xacE2"~\xa0?'
p318
tp319
Rp320
sg205
g176
sg206
I01
sbag0
(g190
g2
Ntp321
Rp322
(dp323
g194
g195
(g199
S'\x07\xd9\xa5\xbc*\x11\x0c?'
p324
tp325
Rp326
sg205
g174
sg206
I01
sbag0
(g190
g2
Ntp327
Rp328
(dp329
g194
g195
(g199
S'\xaf\xd6\x03\\\xc7\xa2T?'
p330
tp331
Rp332
sg205
g169
sg206
I01
sbag0
(g190
g2
Ntp333
Rp334
(dp335
g194
g195
(g199
S'A\x84\xbc\xb7\x80c\\?'
p336
tp337
Rp338
sg205
g114
sg206
I01
sbag0
(g190
g2
Ntp339
Rp340
(dp341
g194
g195
(g199
S'\xa7\xba(\xdc\t\xdbV>'
p342
tp343
Rp344
sg205
g127
sg206
I01
sbag0
(g190
g2
Ntp345
Rp346
(dp347
g194
g195
(g199
S'-4c\x16\xd7\x99\x8c>'
p348
tp349
Rp350
sg205
g181
sg206
I01
sbag0
(g190
g2
Ntp351
Rp352
(dp353
g194
g195
(g199
S'\x91\xab\xcc~hw\xbd?'
p354
tp355
Rp356
sg205
g123
sg206
I01
sbag0
(g190
g2
Ntp357
Rp358
(dp359
g194
g195
(g199
S'\xb9=R\x9ff\x1d@@'
p360
tp361
Rp362
sg205
g83
sg206
I01
sbag0
(g190
g2
Ntp363
Rp364
(dp365
g194
g195
(g199
S'\xee}\xa2\xf9,4q>'
p366
tp367
Rp368
sg205
g143
sg206
I01
sbag0
(g190
g2
Ntp369
Rp370
(dp371
g194
g195
(g199
S':5;y\x8f\x1cc?'
p372
tp373
Rp374
sg205
g149
sg206
I01
sbag0
(g190
g2
Ntp375
Rp376
(dp377
g194
g195
(g199
S'xrQ\xf7\xe3\x0eF@'
p378
tp379
Rp380
sg205
g162
sg206
I01
sbag0
(g190
g2
Ntp381
Rp382
(dp383
g194
g195
(g199
S'\xfdD\x0c\xc6\xd2\x142?'
p384
tp385
Rp386
sg205
g165
sg206
I01
sbag0
(g190
g2
Ntp387
Rp388
(dp389
g194
g195
(g199
S'\xc1\xc1\xc1\xce|\xeb\x17?'
p390
tp391
Rp392
sg205
g164
sg206
I01
sbag0
(g190
g2
Ntp393
Rp394
(dp395
g194
g195
(g199
S'P\xee/p\xf4\xacu>'
p396
tp397
Rp398
sg205
g129
sg206
I01
sbag0
(g190
g2
Ntp399
Rp400
(dp401
g194
g195
(g199
S'\x03\xeb}<\x86\xe3b?'
p402
tp403
Rp404
sg205
g115
sg206
I01
sbag0
(g190
g2
Ntp405
Rp406
(dp407
g194
g195
(g199
S'\x1e\xa7\xd3\x15\xec\xbeY?'
p408
tp409
Rp410
sg205
g34
sg206
I01
sbag0
(g190
g2
Ntp411
Rp412
(dp413
g194
g195
(g199
S'`g\x96\xc6\xef\xdb\x93?'
p414
tp415
Rp416
sg205
g168
sg206
I01
sbag0
(g190
g2
Ntp417
Rp418
(dp419
g194
g195
(g199
S'\x1f\xed\x8b\xc4&\xfa\x12?'
p420
tp421
Rp422
sg205
g88
sg206
I01
sbag0
(g190
g2
Ntp423
Rp424
(dp425
g194
g195
(g199
S'\xe3\xc2\xfe\xbdLu\xe8>'
p426
tp427
Rp428
sg205
g95
sg206
I01
sbag0
(g190
g2
Ntp429
Rp430
(dp431
g194
g195
(g199
S'GZf\xae\x92\xb4\xfb='
p432
tp433
Rp434
sg205
g61
sg206
I01
sbag0
(g190
g2
Ntp435
Rp436
(dp437
g194
g195
(g199
S'\xef\xe5Kw\xb3\xd6\x01@'
p438
tp439
Rp440
sg205
g58
sg206
I01
sbag0
(g190
g2
Ntp441
Rp442
(dp443
g194
g195
(g199
S'\xd8\xb4R\xc7\xa86p?'
p444
tp445
Rp446
sg205
g44
sg206
I01
sbag0
(g190
g2
Ntp447
Rp448
(dp449
g194
g195
(g199
S'\xf6\xe4\xba9\xe1{5?'
p450
tp451
Rp452
sg205
g50
sg206
I01
sbag0
(g190
g2
Ntp453
Rp454
(dp455
g194
g195
(g199
S'e@\x81G\xdf\xdft?'
p456
tp457
Rp458
sg205
g94
sg206
I01
sbag0
(g190
g2
Ntp459
Rp460
(dp461
g194
g195
(g199
S'q\x83m\xf9U\r\xd2='
p462
tp463
Rp464
sg205
g157
sg206
I01
sbag0
(g190
g2
Ntp465
Rp466
(dp467
g194
g195
(g199
S'\xa7\xdf\xbcI\x14\x8e\xc9>'
p468
tp469
Rp470
sg205
g45
sg206
I01
sbag0
(g190
g2
Ntp471
Rp472
(dp473
g194
g195
(g199
S'\xa2\x06F@\xbf\xaa\xfe?'
p474
tp475
Rp476
sg205
g109
sg206
I01
sbag0
(g190
g2
Ntp477
Rp478
(dp479
g194
g195
(g199
S'\xdb\x92\x1c+\xdc\xd9\xe0>'
p480
tp481
Rp482
sg205
g172
sg206
I01
sbag0
(g190
g2
Ntp483
Rp484
(dp485
g194
g195
(g199
S'H|u\xbd:\x95g?'
p486
tp487
Rp488
sg205
g76
sg206
I01
sbag0
(g190
g2
Ntp489
Rp490
(dp491
g194
g195
(g199
S'\x03LN\x9a81\xa2>'
p492
tp493
Rp494
sg205
g47
sg206
I01
sbag0
(g190
g2
Ntp495
Rp496
(dp497
g194
g195
(g199
S'4\x942\xc1\xae}\xd3?'
p498
tp499
Rp500
sg205
g107
sg206
I01
sbag0
(g190
g2
Ntp501
Rp502
(dp503
g194
g195
(g199
S'U\xc5\x9c\xbb|6\xd5?'
p504
tp505
Rp506
sg205
g35
sg206
I01
sbag0
(g190
g2
Ntp507
Rp508
(dp509
g194
g195
(g199
S'\x9f%\xa8\xbb\xb5\x9e_?'
p510
tp511
Rp512
sg205
g91
sg206
I01
sbag0
(g190
g2
Ntp513
Rp514
(dp515
g194
g195
(g199
S'\xfaU\xaa\xbeda\x7f@'
p516
tp517
Rp518
sg205
g12
sg206
I01
sbag0
(g190
g2
Ntp519
Rp520
(dp521
g194
g195
(g199
S'\xdd\xa8\x12\xb2\x86\xf3\xb8>'
p522
tp523
Rp524
sg205
g113
sg206
I01
sbag0
(g190
g2
Ntp525
Rp526
(dp527
g194
g195
(g199
S'\xc29!B\xcc \xa7?'
p528
tp529
Rp530
sg205
g112
sg206
I01
sbag0
(g190
g2
Ntp531
Rp532
(dp533
g194
g195
(g199
S'ycxHp$\x14?'
p534
tp535
Rp536
sg205
g111
sg206
I01
sbag0
(g190
g2
Ntp537
Rp538
(dp539
g194
g195
(g199
S'\xa8\xe0I\xa7\xa5\xc8:@'
p540
tp541
Rp542
sg205
g118
sg206
I01
sbag0
(g190
g2
Ntp543
Rp544
(dp545
g194
g195
(g199
S'\xf3*\x9d0L\x97\x1e>'
p546
tp547
Rp548
sg205
g78
sg206
I01
sbag0
(g190
g2
Ntp549
Rp550
(dp551
g194
g195
(g199
S'\xe3\xe4\xf0\x11\xd1\x12\xe7?'
p552
tp553
Rp554
sg205
g63
sg206
I01
sbag0
(g190
g2
Ntp555
Rp556
(dp557
g194
g195
(g199
S'\x018Ht7VH?'
p558
tp559
Rp560
sg205
g134
sg206
I01
sbag0
(g190
g2
Ntp561
Rp562
(dp563
g194
g195
(g199
S'\x8a\x12\x11?2\xd6\x08@'
p564
tp565
Rp566
sg205
g106
sg206
I01
sbag0
(g190
g2
Ntp567
Rp568
(dp569
g194
g195
(g199
S'\xc7\xe3\xf2<\x88\x00p>'
p570
tp571
Rp572
sg205
g146
sg206
I01
sbag0
(g190
g2
Ntp573
Rp574
(dp575
g194
g195
(g199
S'\x95\x0b\xeen9\x85\xf2?'
p576
tp577
Rp578
sg205
g142
sg206
I01
sbag0
(g190
g2
Ntp579
Rp580
(dp581
g194
g195
(g199
S'\xc9\xc4\xaf\x18\x7fLO?'
p582
tp583
Rp584
sg205
g182
sg206
I01
sbag0
(g190
g2
Ntp585
Rp586
(dp587
g194
g195
(g199
S',\x17V\x92)\x17\x8c>'
p588
tp589
Rp590
sg205
g13
sg206
I01
sbag0
(g190
g2
Ntp591
Rp592
(dp593
g194
g195
(g199
S'\x90\xa8\x1d:.M\xb0?'
p594
tp595
Rp596
sg205
g17
sg206
I01
sbag0
(g190
g2
Ntp597
Rp598
(dp599
g194
g195
(g199
S'\xad*\xdfE\xefk\x80='
p600
tp601
Rp602
sg205
g175
sg206
I01
sbag0
(g190
g2
Ntp603
Rp604
(dp605
g194
g195
(g199
S'\xaazbj\xbd4\xe2?'
p606
tp607
Rp608
sg205
g69
sg206
I01
sbag0
(g190
g2
Ntp609
Rp610
(dp611
g194
g195
(g199
S')\x9b\x1e\xd4Fo\xff>'
p612
tp613
Rp614
sg205
g43
sg206
I01
sbag0
(g190
g2
Ntp615
Rp616
(dp617
g194
g195
(g199
S'S\xee\x88c:q\xc4?'
p618
tp619
Rp620
sg205
g53
sg206
I01
sbag0
(g190
g2
Ntp621
Rp622
(dp623
g194
g195
(g199
S'=qOw\xa7\x81\xc0>'
p624
tp625
Rp626
sg205
g70
sg206
I01
sbag0
(g190
g2
Ntp627
Rp628
(dp629
g194
g195
(g199
S'\x9b\xe0*\x7f\x85L\x80='
p630
tp631
Rp632
sg205
g141
sg206
I01
sbag0
(g190
g2
Ntp633
Rp634
(dp635
g194
g195
(g199
S'k\xab(L\xc9\x91s?'
p636
tp637
Rp638
sg205
g147
sg206
I01
sbag0
(g190
g2
Ntp639
Rp640
(dp641
g194
g195
(g199
S'(Q&$\x80\x98\xd4?'
p642
tp643
Rp644
sg205
g48
sg206
I01
sbag0
(g190
g2
Ntp645
Rp646
(dp647
g194
g195
(g199
S'Zr\xe7\x8fJV\x8c>'
p648
tp649
Rp650
sg205
g49
sg206
I01
sbag0
(g190
g2
Ntp651
Rp652
(dp653
g194
g195
(g199
S'\x1a"\xd2\xe4\x9e\xa7`>'
p654
tp655
Rp656
sg205
g55
sg206
I01
sbag0
(g190
g2
Ntp657
Rp658
(dp659
g194
g195
(g199
S'\xb8^\x0b\x1ah\x9e\xfb?'
p660
tp661
Rp662
sg205
g151
sg206
I01
sbag0
(g190
g2
Ntp663
Rp664
(dp665
g194
g195
(g199
S'-D\xba0\x00\x88@?'
p666
tp667
Rp668
sg205
g57
sg206
I01
sbag0
(g190
g2
Ntp669
Rp670
(dp671
g194
g195
(g199
S'Ir\xa2)^ri>'
p672
tp673
Rp674
sg205
g56
sg206
I01
sbag0
(g190
g2
Ntp675
Rp676
(dp677
g194
g195
(g199
S'3\xa34)H\x93\xa2?'
p678
tp679
Rp680
sg205
g103
sg206
I01
sbag0
(g190
g2
Ntp681
Rp682
(dp683
g194
g195
(g199
S'\xd1\xc7*\x87\x17\xe5(@'
p684
tp685
Rp686
sg205
g117
sg206
I01
sbag0
(g190
g2
Ntp687
Rp688
(dp689
g194
g195
(g199
S'\xf7\x08\x1eK\xa53\xb3?'
p690
tp691
Rp692
sg205
g178
sg206
I01
sbag0
(g190
g2
Ntp693
Rp694
(dp695
g194
g195
(g199
S'\xa8O\xfd\x81\xf2\x03i?'
p696
tp697
Rp698
sg205
g108
sg206
I01
sbag0
(g190
g2
Ntp699
Rp700
(dp701
g194
g195
(g199
S'\xdaI\x85\xd8\x95c\x00?'
p702
tp703
Rp704
sg205
g125
sg206
I01
sbag0
(g190
g2
Ntp705
Rp706
(dp707
g194
g195
(g199
S"\xdc'\xb2~\xf9\x10\xab?"
p708
tp709
Rp710
sg205
g166
sg206
I01
sbag0
(g190
g2
Ntp711
Rp712
(dp713
g194
g195
(g199
S'p\xdfn\xb6\xf4\xf4d>'
p714
tp715
Rp716
sg205
g171
sg206
I01
sbag0
(g190
g2
Ntp717
Rp718
(dp719
g194
g195
(g199
S'T\xdd\xa5\xad\xe1\xec\xf2>'
p720
tp721
Rp722
sg205
g177
sg206
I01
sbag0
(g190
g2
Ntp723
Rp724
(dp725
g194
g195
(g199
S'\xe5\xe29\x01\xd0\xd3\x1b@'
p726
tp727
Rp728
sg205
g33
sg206
I01
sbag0
(g190
g2
Ntp729
Rp730
(dp731
g194
g195
(g199
S'\x00\x1f#\x8d\xd3B\xe9>'
p732
tp733
Rp734
sg205
g77
sg206
I01
sbag0
(g190
g2
Ntp735
Rp736
(dp737
g194
g195
(g199
S'\x85\x07\xf3\x1cP\x10\xf0?'
p738
tp739
Rp740
sg205
g87
sg206
I01
sbag0
(g190
g2
Ntp741
Rp742
(dp743
g194
g195
(g199
S'\xb2\xc8\x1a\xa1?\xb5S>'
p744
tp745
Rp746
sg205
g136
sg206
I01
sbag0
(g190
g2
Ntp747
Rp748
(dp749
g194
g195
(g199
S'\x01\xd4s\x84\xfc\x16\xd0?'
p750
tp751
Rp752
sg205
g163
sg206
I01
sbag0
(g190
g2
Ntp753
Rp754
(dp755
g194
g195
(g199
S'S\xe8t\x19K[p@'
p756
tp757
Rp758
sg205
g159
sg206
I01
sbag0
(g190
g2
Ntp759
Rp760
(dp761
g194
g195
(g199
S'\x1b\x94\x18y\x85\x9b\xe5>'
p762
tp763
Rp764
sg205
g32
sg206
I01
sbag0
(g190
g2
Ntp765
Rp766
(dp767
g194
g195
(g199
S'\xdc\xa3\x8e\xc6n\x90\xa1?'
p768
tp769
Rp770
sg205
g38
sg206
I01
sbag0
(g190
g2
Ntp771
Rp772
(dp773
g194
g195
(g199
S'\xc2\xe9:\xb8\xa6\xf3\xb6?'
p774
tp775
Rp776
sg205
g10
sg206
I01
sbag0
(g190
g2
Ntp777
Rp778
(dp779
g194
g195
(g199
S'g\xcf\xcelA\xf8\xc6@'
p780
tp781
Rp782
sg205
g154
sg206
I01
sbag0
(g190
g2
Ntp783
Rp784
(dp785
g194
g195
(g199
S'\x8as)\x9d\xe4\xa6Z>'
p786
tp787
Rp788
sg205
g66
sg206
I01
sbag0
(g190
g2
Ntp789
Rp790
(dp791
g194
g195
(g199
S'iFi\x9a\x979\xb7>'
p792
tp793
Rp794
sg205
g60
sg206
I01
sbag0
(g190
g2
Ntp795
Rp796
(dp797
g194
g195
(g199
S'\xfe,9Ls\xed\x9d?'
p798
tp799
Rp800
sg205
g132
sg206
I01
sbag0
(g190
g2
Ntp801
Rp802
(dp803
g194
g195
(g199
S'\xc7\xb2\x8a\xb2\x92u\xd1?'
p804
tp805
Rp806
sg205
g27
sg206
I01
sbag0
(g190
g2
Ntp807
Rp808
(dp809
g194
g195
(g199
S'\x93zp{\x89\xbfd?'
p810
tp811
Rp812
sg205
g22
sg206
I01
sbag0
(g190
g2
Ntp813
Rp814
(dp815
g194
g195
(g199
S'-\x06\x06\xc48\x1a\xa7@'
p816
tp817
Rp818
sg205
g137
sg206
I01
sbag0
(g190
g2
Ntp819
Rp820
(dp821
g194
g195
(g199
S'\xadz7\x8cf\x91!>'
p822
tp823
Rp824
sg205
g126
sg206
I01
sbag0
(g190
g2
Ntp825
Rp826
(dp827
g194
g195
(g199
S':\xdeXk\xb7f\x9c>'
p828
tp829
Rp830
sg205
g110
sg206
I01
sbag0
(g190
g2
Ntp831
Rp832
(dp833
g194
g195
(g199
S'\x05\xd8A\x93\xe7\xad\xac>'
p834
tp835
Rp836
sg205
g26
sg206
I01
sbag0
(g190
g2
Ntp837
Rp838
(dp839
g194
g195
(g199
S'\xff\xa6\x86,\x80\x82N>'
p840
tp841
Rp842
sg205
g21
sg206
I01
sbag0
(g190
g2
Ntp843
Rp844
(dp845
g194
g195
(g199
S'\x16\x0c|\x0f\xde+P?'
p846
tp847
Rp848
sg205
g155
sg206
I01
sbag0
(g190
g2
Ntp849
Rp850
(dp851
g194
g195
(g199
S'\xceh\xc6\x03\x15\x07\xde>'
p852
tp853
Rp854
sg205
g150
sg206
I01
sbag0
(g190
g2
Ntp855
Rp856
(dp857
g194
g195
(g199
S'\x12\xf4O\x08\xaa\x9b\xb4>'
p858
tp859
Rp860
sg205
g120
sg206
I01
sbag0
(g190
g2
Ntp861
Rp862
(dp863
g194
g195
(g199
S')\xd9\x84\n\xe9\xdc\x00@'
p864
tp865
Rp866
sg205
g128
sg206
I01
sbag0
(g190
g2
Ntp867
Rp868
(dp869
g194
g195
(g199
S"$\xb3\x82'n\xa7I?"
p870
tp871
Rp872
sg205
g98
sg206
I01
sbag0
(g190
g2
Ntp873
Rp874
(dp875
g194
g195
(g199
S'\x7f4\x82sC\xf0\xfa?'
p876
tp877
Rp878
sg205
g104
sg206
I01
sbag0
(g190
g2
Ntp879
Rp880
(dp881
g194
g195
(g199
S'\xc21?uz\xac\xfe>'
p882
tp883
Rp884
sg205
g75
sg206
I01
sbag0
(g190
g2
Ntp885
Rp886
(dp887
g194
g195
(g199
S'\xbd\xfc\x15^\xeb\xb0\xeb?'
p888
tp889
Rp890
sg205
g81
sg206
I01
sbag0
(g190
g2
Ntp891
Rp892
(dp893
g194
g195
(g199
S'\x7f\xcd\x80\xc2\x88ck>'
p894
tp895
Rp896
sg205
g25
sg206
I01
sbag0
(g190
g2
Ntp897
Rp898
(dp899
g194
g195
(g199
S'\x994\xae\xc0\xa4p\xf2?'
p900
tp901
Rp902
sg205
g19
sg206
I01
sbag0
(g190
g2
Ntp903
Rp904
(dp905
g194
g195
(g199
S'Z\xbbO\xa9\xef\x85\r?'
p906
tp907
Rp908
sg205
g135
sg206
I01
sbag0
(g190
g2
Ntp909
Rp910
(dp911
g194
g195
(g199
S'\x9d\xe6\xfe\x06n\x1c\\@'
p912
tp913
Rp914
sg205
g119
sg206
I01
sbag0
(g190
g2
Ntp915
Rp916
(dp917
g194
g195
(g199
S'\xd3)8\xdf\x1fH$?'
p918
tp919
Rp920
sg205
g158
sg206
I01
sbag0
(g190
g2
Ntp921
Rp922
(dp923
g194
g195
(g199
S'.5\xc7\xf0GD\xb1@'
p924
tp925
Rp926
sg205
g30
sg206
I01
sbag0
(g190
g2
Ntp927
Rp928
(dp929
g194
g195
(g199
S'{F\xe4\xf9/_\xe4='
p930
tp931
Rp932
sg205
g36
sg206
I01
sbag0
(g190
g2
Ntp933
Rp934
(dp935
g194
g195
(g199
S';j\x8e%\x91\xd9\xa5?'
p936
tp937
Rp938
sg205
g54
sg206
I01
sbag0
(g190
g2
Ntp939
Rp940
(dp941
g194
g195
(g199
S'\x85\xf1\x01@\xa4\xac1?'
p942
tp943
Rp944
sg205
g138
sg206
I01
sbag0
(g190
g2
Ntp945
Rp946
(dp947
g194
g195
(g199
S'\xf9\xbc\x03A\x86\xa7t?'
p948
tp949
Rp950
sg205
g101
sg206
I01
sbag0
(g190
g2
Ntp951
Rp952
(dp953
g194
g195
(g199
S'\xe2b\xb3\x9b\xbe\x00s>'
p954
tp955
Rp956
sg205
g187
sg206
I01
sbag0
(g190
g2
Ntp957
Rp958
(dp959
g194
g195
(g199
S'\x93Q\xb0\xc6\x81/\xee?'
p960
tp961
Rp962
sg205
g180
sg206
I01
sbag0
(g190
g2
Ntp963
Rp964
(dp965
g194
g195
(g199
S'\xa3\xdclPO\x83V?'
p966
tp967
Rp968
sg205
g64
sg206
I01
sbag0
(g190
g2
Ntp969
Rp970
(dp971
g194
g195
(g199
S'\\-kK\xd47\x00?'
p972
tp973
Rp974
sg205
g89
sg206
I01
sbag0
(g190
g2
Ntp975
Rp976
(dp977
g194
g195
(g199
S'\x90\xc2i\xec\xfc\xa1\x1d?'
p978
tp979
Rp980
sg205
g71
sg206
I01
sbag0
(g190
g2
Ntp981
Rp982
(dp983
g194
g195
(g199
S'\xb8q\xa5;\xf3\xb6\xb0>'
p984
tp985
Rp986
sg205
g67
sg206
I01
sbag0
(g190
g2
Ntp987
Rp988
(dp989
g194
g195
(g199
S'\xbd\xe8\xdcc\xf4bv?'
p990
tp991
Rp992
sg205
g73
sg206
I01
sbag0
(g190
g2
Ntp993
Rp994
(dp995
g194
g195
(g199
S'n\xfa\x98\xbb>\x05S?'
p996
tp997
Rp998
sg205
g9
sg206
I01
sbag0
(g190
g2
Ntp999
Rp1000
(dp1001
g194
g195
(g199
S'<\xc2\xc6h\x89\xc2\x1c?'
p1002
tp1003
Rp1004
sg205
g100
sg206
I01
sbag0
(g190
g2
Ntp1005
Rp1006
(dp1007
g194
g195
(g199
S'\xf9\xbd\x9a]\x062\xd7>'
p1008
tp1009
Rp1010
sg205
g105
sg206
I01
sbag0
(g190
g2
Ntp1011
Rp1012
(dp1013
g194
g195
(g199
S'\x03\xa6\x0fR\xfc\xcbB?'
p1014
tp1015
Rp1016
sg205
g28
sg206
I01
sbag0
(g190
g2
Ntp1017
Rp1018
(dp1019
g194
g195
(g199
S'zM\x88\xd5\x02\x13\xe9>'
p1020
tp1021
Rp1022
sg205
g23
sg206
I01
sbag0
(g190
g2
Ntp1023
Rp1024
(dp1025
g194
g195
(g199
S'\xda4\xc2\x1b\xcb?U@'
p1026
tp1027
Rp1028
sg205
g65
sg206
I01
sbag0
(g190
g2
Ntp1029
Rp1030
(dp1031
g194
g195
(g199
S'\xbf\xdb\xa2I\xf4\x0eZ?'
p1032
tp1033
Rp1034
sg205
g130
sg206
I01
sbag0
(g190
g2
Ntp1035
Rp1036
(dp1037
g194
g195
(g199
S'\x19\xa4\x07\xa4I\xc9)?'
p1038
tp1039
Rp1040
sg205
g116
sg206
I01
sbag0
(g190
g2
Ntp1041
Rp1042
(dp1043
g194
g195
(g199
S'\xd4\xe7X!GA\xaf@'
p1044
tp1045
Rp1046
sg205
g39
sg206
I01
sbag0
(g190
g2
Ntp1047
Rp1048
(dp1049
g194
g195
(g199
S'?\xc82\xb9[\xa0W>'
p1050
tp1051
Rp1052
sg205
g160
sg206
I01
sbag0
(g190
g2
Ntp1053
Rp1054
(dp1055
g194
g195
(g199
S'.\xd6\x8b-$\xae\xfd>'
p1056
tp1057
Rp1058
sg205
g170
sg206
I01
sbag0
(g190
g2
Ntp1059
Rp1060
(dp1061
g194
g195
(g199
S'\xd52\x9a\xaf>\x13\x93@'
p1062
tp1063
Rp1064
sg205
g139
sg206
I01
sbag0
(g190
g2
Ntp1065
Rp1066
(dp1067
g194
g195
(g199
S'\xba\x18\x90R\xb4\xac\xd3>'
p1068
tp1069
Rp1070
sg205
g173
sg206
I01
sbag0
(g190
g2
Ntp1071
Rp1072
(dp1073
g194
g195
(g199
S'-W<\xef\xc9\xdbb?'
p1074
tp1075
Rp1076
sg205
g29
sg206
I01
sbag0
(g190
g2
Ntp1077
Rp1078
(dp1079
g194
g195
(g199
S'\xe1\xa7\x18\xff\x16h]@'
p1080
tp1081
Rp1082
sg205
g24
sg206
I01
sbag0
(g190
g2
Ntp1083
Rp1084
(dp1085
g194
g195
(g199
S'\xa9\xa4\x1b\x02s4\xf2?'
p1086
tp1087
Rp1088
sg205
g144
sg206
I01
sbag0
(g190
g2
Ntp1089
Rp1090
(dp1091
g194
g195
(g199
S'\xe8\xf3\xb2K\x85\xb0\x05?'
p1092
tp1093
Rp1094
sg205
g148
sg206
I01
sbag0
(g190
g2
Ntp1095
Rp1096
(dp1097
g194
g195
(g199
S'\x90(z\xf2\xf49\x94@'
p1098
tp1099
Rp1100
sg205
g140
sg206
I01
sbag0
(g190
g2
Ntp1101
Rp1102
(dp1103
g194
g195
(g199
S'o\xda_\xee\xca \xf7?'
p1104
tp1105
Rp1106
sg205
g133
sg206
I01
sbag0
(g190
g2
Ntp1107
Rp1108
(dp1109
g194
g195
(g199
S'e.y\xc0\xc1\x91\xa2='
p1110
tp1111
Rp1112
sg205
g62
sg206
I01
sbag0
(g190
g2
Ntp1113
Rp1114
(dp1115
g194
g195
(g199
S'\xb2\xf2\x8e\xb3f\xbab?'
p1116
tp1117
Rp1118
sg205
g59
sg206
I01
sbag0
(g190
g2
Ntp1119
Rp1120
(dp1121
g194
g195
(g199
S'q|\xf5\xa4\xd9h\xb2?'
p1122
tp1123
Rp1124
sg205
g167
sg206
I01
sbag0
(g190
g2
Ntp1125
Rp1126
(dp1127
g194
g195
(g199
S'\xbcq>\x99\x05\xabj?'
p1128
tp1129
Rp1130
sg205
g97
sg206
I01
sbag0
(g190
g2
Ntp1131
Rp1132
(dp1133
g194
g195
(g199
S'\xd4:\xef\xdfY=Z@'
p1134
tp1135
Rp1136
sg205
g131
sg206
I01
sbag0
(g190
g2
Ntp1137
Rp1138
(dp1139
g194
g195
(g199
S'm\xb1O\x8aX\xf2\xaf>'
p1140
tp1141
Rp1142
sg205
g92
sg206
I01
sbag0
(g190
g2
Ntp1143
Rp1144
(dp1145
g194
g195
(g199
S'[\xc4\xa2!\xda\xf8\xd8?'
p1146
tp1147
Rp1148
sg205
g96
sg206
I01
sbag0
(g190
g2
Ntp1149
Rp1150
(dp1151
g194
g195
(g199
S'\x03s\x8cX\xf0\x9c\x99?'
p1152
tp1153
Rp1154
sg205
g8
sg206
I01
sbag0
(g190
g2
Ntp1155
Rp1156
(dp1157
g194
g195
(g199
S'\x0c\xc9\xe2\xfe\x8a\x8dZ?'
p1158
tp1159
Rp1160
sg205
g186
sg206
I01
sbag0
(g190
g2
Ntp1161
Rp1162
(dp1163
g194
g195
(g199
S'#;\xb1\x9a\xfe\xb1h?'
p1164
tp1165
Rp1166
sg205
g156
sg206
I01
sbag0
(g190
g2
Ntp1167
Rp1168
(dp1169
g194
g195
(g199
S'\x83\xbc\xb8TS\x16c?'
p1170
tp1171
Rp1172
sg205
g74
sg206
I01
sbag0
(g190
g2
Ntp1173
Rp1174
(dp1175
g194
g195
(g199
S'\xd4\xc5\xfe\x90\x96RG>'
p1176
tp1177
Rp1178
sg205
g124
sg206
I01
sbag0
(g190
g2
Ntp1179
Rp1180
(dp1181
g194
g195
(g199
S"\xc6\x8f\xc6'\xd4\xb5$>"
p1182
tp1183
Rp1184
sg205
g161
sg206
I01
sbag0
(g190
g2
Ntp1185
Rp1186
(dp1187
g194
g195
(g199
S'S\x13`?h\xbf|?'
p1188
tp1189
Rp1190
sg205
g152
sg206
I01
sbag0
(g190
g2
Ntp1191
Rp1192
(dp1193
g194
g195
(g199
S'\xc9#\xbdp\n\xa7\x10A'
p1194
tp1195
Rp1196
sg205
g16
sg206
I01
sbag0
(g190
g2
Ntp1197
Rp1198
(dp1199
g194
g195
(g199
S'\x99;\x87\x10ti\xef>'
p1200
tp1201
Rp1202
sg205
g153
sg206
I01
sbag0
(g190
g2
Ntp1203
Rp1204
(dp1205
g194
g195
(g199
S'\xec^V\xf6\xb3\x17\xe2='
p1206
tp1207
Rp1208
sg205
g82
sg206
I01
sbag0
(g190
g2
Ntp1209
Rp1210
(dp1211
g194
g195
(g199
S'\x98G`\xc6\x13\xc4\xcc@'
p1212
tp1213
Rp1214
sg205
g85
sg206
I01
sbag0
(g190
g2
Ntp1215
Rp1216
(dp1217
g194
g195
(g199
S'K\xa5\xa5\x18\xf0\x8c\xdd>'
p1218
tp1219
Rp1220
sg205
g20
sg206
I01
sbag0
(g190
g2
Ntp1221
Rp1222
(dp1223
g194
g195
(g199
S'`.[\xfc\x15\xb4{?'
p1224
tp1225
Rp1226
sg205
g145
sg206
I01
sbag0
(g190
g2
Ntp1227
Rp1228
(dp1229
g194
g195
(g199
S'\xe3\x96\x17\xd2k\x1e\xf4?'
p1230
tp1231
Rp1232
sg205
g86
sg206
I01
sbag0
(g190
g2
Ntp1233
Rp1234
(dp1235
g194
g195
(g199
S'\xf3\xa0\x00\x812\xa7\xfa>'
p1236
tp1237
Rp1238
sg205
g183
sg206
I01
sbag0
(g190
g2
Ntp1239
Rp1240
(dp1241
g194
g195
(g199
S'\x16\xb3\xed!\xf2\x977?'
p1242
tp1243
Rp1244
sg205
g121
sg206
I01
sbag0
(g190
g2
Ntp1245
Rp1246
(dp1247
g194
g195
(g199
S'\xcdS-\xe6\x97\x02+?'
p1248
tp1249
Rp1250
sg205
g184
sg206
I01
sbag0
(g190
g2
Ntp1251
Rp1252
(dp1253
g194
g195
(g199
S'\x1d\x12\xf6\xa9\xd9\xa7\xb7>'
p1254
tp1255
Rp1256
sg205
g122
sg206
I01
sbag0
(g190
g2
Ntp1257
Rp1258
(dp1259
g194
g195
(g199
S'\xd6\xa3K(\x90(\xd3>'
p1260
tp1261
Rp1262
sg205
g80
sg206
I01
sbag0
(g190
g2
Ntp1263
Rp1264
(dp1265
g194
g195
(g199
S'\x04<\x7f}\xb8\xdfD?'
p1266
tp1267
Rp1268
sg205
g18
sg206
I01
sbag0
(g190
g2
Ntp1269
Rp1270
(dp1271
g194
g195
(g199
S'\xd8\xe7\xff\xb1V\xdb$?'
p1272
tp1273
Rp1274
sg205
g14
sg206
I01
sbag0
(g190
g2
Ntp1275
Rp1276
(dp1277
g194
g195
(g199
S'\xcaX\x1b\xafv\xef\x12@'
p1278
tp1279
Rp1280
sg205
g40
sg206
I01
sbasS'_map'
p1281
(dp1282
g8
g1150
sg9
g994
sg10
g772
sg11
g214
sg12
g514
sg13
g586
sg14
g1270
sg15
g220
sg16
g1192
sg17
g592
sg18
g1264
sg19
g898
sg20
g1216
sg21
g838
sg22
g808
sg23
g1018
sg24
g1078
sg25
g892
sg26
g832
sg27
g802
sg28
g1012
sg29
g1072
sg30
g922
sg31
g310
sg32
g760
sg33
g724
sg34
g406
sg35
g502
sg36
g928
sg37
g304
sg38
g766
sg39
g1042
sg40
g1276
sg41
g286
sg42
g274
sg43
g610
sg44
g442
sg45
g466
sg46
g238
sg47
g490
sg48
g640
sg49
g646
sg50
g448
sg51
g244
sg52
g280
sg53
g616
sg54
g934
sg55
g652
sg56
g670
sg57
g664
sg58
g436
sg59
g1114
sg60
g790
sg61
g430
sg62
g1108
sg63
g550
sg64
g964
sg65
g1024
sg66
g784
sg67
g982
sg68
g298
sg69
g604
sg70
g622
sg71
g976
sg72
g292
sg73
g988
sg74
g1168
sg75
g880
sg76
g484
sg77
g730
sg78
g544
sg79
g232
sg80
g1258
sg81
g886
sg82
g1204
sg83
g358
sg84
g226
sg85
g1210
sg86
g1228
sg87
g736
sg88
g418
sg89
g970
sg90
g268
sg91
g508
sg92
g1138
sg93
g262
sg94
g454
sg95
g424
sg96
g1144
sg97
g1126
sg98
g868
sg99
g256
sg100
g1000
sg101
g946
sg102
g250
sg103
g676
sg104
g874
sg105
g1006
sg106
g562
sg107
g496
sg108
g694
sg109
g472
sg110
g826
sg111
g532
sg112
g526
sg113
g520
sg114
g334
sg115
g400
sg116
g1036
sg117
g682
sg118
g538
sg119
g910
sg120
g856
sg121
g1240
sg122
g1252
sg123
g352
sg124
g1174
sg125
g700
sg126
g820
sg127
g340
sg128
g862
sg129
g394
sg130
g1030
sg131
g1132
sg132
g796
sg133
g1102
sg134
g556
sg135
g904
sg136
g742
sg137
g814
sg138
g940
sg139
g1060
sg140
g1096
sg141
g628
sg142
g574
sg143
g364
sg144
g1084
sg145
g1222
sg146
g568
sg147
g634
sg148
g1090
sg149
g370
sg150
g850
sg151
g658
sg152
g1186
sg153
g1198
sg154
g778
sg155
g844
sg156
g1162
sg157
g460
sg158
g916
sg159
g754
sg160
g1048
sg161
g1180
sg162
g376
sg163
g748
sg164
g388
sg165
g382
sg166
g706
sg167
g1120
sg168
g412
sg169
g328
sg170
g1054
sg171
g712
sg172
g478
sg173
g1066
sg174
g322
sg175
g598
sg176
g316
sg177
g718
sg178
g688
sg179
g192
sg180
g958
sg181
g346
sg182
g580
sg183
g1234
sg184
g1246
sg185
g208
sg186
g1156
sg187
g952
ssb.