(lp0
(ccopy_reg
_reconstructor
p1
(cpysb.core
Parameter
p2
c__builtin__
object
p3
Ntp4
Rp5
(dp6
S'_export'
p7
I01
sS'name'
p8
S'bind_TNFa_TNFR1_kf'
p9
sS'value'
p10
F1e-06
sbcnumpy.core.multiarray
scalar
p11
(cnumpy
dtype
p12
(S'f8'
p13
I0
I1
tp14
Rp15
(I3
S'<'
p16
NNNI-1
I-1
I0
tp17
bS'D\x1cl_\x9a\xcf\xa2>'
p18
tp19
Rp20
tp21
a(g1
(g2
g3
Ntp22
Rp23
(dp24
g7
I01
sg8
S'bind_TNFa_TNFR1_kr'
p25
sg10
F0.001
sbg11
(g15
S'"E\xf8+,`w?'
p26
tp27
Rp28
tp29
a(g1
(g2
g3
Ntp30
Rp31
(dp32
g7
I01
sg8
S'bind_TNFR1ANY_TRADD_kf'
p33
sg10
F1e-06
sbg11
(g15
S'\xc7\x1c\xf4\xa87ql>'
p34
tp35
Rp36
tp37
a(g1
(g2
g3
Ntp38
Rp39
(dp40
g7
I01
sg8
S'bind_TNFR1ANY_TRADD_kr'
p41
sg10
F0.001
sbg11
(g15
S'\xc2\xce&:0\xfe\x86?'
p42
tp43
Rp44
tp45
a(g1
(g2
g3
Ntp46
Rp47
(dp48
g7
I01
sg8
S'k1'
p49
sg10
F1e-06
sbg11
(g15
S'\x8f\x18\xa7\x9a\x00\xf1\xe1='
p50
tp51
Rp52
tp53
a(g1
(g2
g3
Ntp54
Rp55
(dp56
g7
I01
sg8
S'k2'
p57
sg10
F0.001
sbg11
(g15
S'\xcfZ\x87lq@\xe8>'
p58
tp59
Rp60
tp61
a(g1
(g2
g3
Ntp62
Rp63
(dp64
g7
I01
sg8
S'k3'
p65
sg10
F1e-06
sbg11
(g15
S'<\xa5\xb9\xe2\xe3Cg>'
p66
tp67
Rp68
tp69
a(g1
(g2
g3
Ntp70
Rp71
(dp72
g7
I01
sg8
S'k4'
p73
sg10
F0.001
sbg11
(g15
S'\xa8W\x93g\xda\xfdM>'
p74
tp75
Rp76
tp77
a(g1
(g2
g3
Ntp78
Rp79
(dp80
g7
I01
sg8
S'bind_TRAF_cIAP_kf'
p81
sg10
F1e-06
sbg11
(g15
S'&:\xc4\x96\\\xf5o>'
p82
tp83
Rp84
tp85
a(g1
(g2
g3
Ntp86
Rp87
(dp88
g7
I01
sg8
S'bind_TRAF_cIAP_kr'
p89
sg10
F0.001
sbg11
(g15
S'\xf4\xf3\xeb\x19\x9b\x82\r@'
p90
tp91
Rp92
tp93
a(g1
(g2
g3
Ntp94
Rp95
(dp96
g7
I01
sg8
S'bind_TRAF_CYLD_kf'
p97
sg10
F1e-06
sbg11
(g15
S'0\xcb\xe3|\x94*p>'
p98
tp99
Rp100
tp101
a(g1
(g2
g3
Ntp102
Rp103
(dp104
g7
I01
sg8
S'bind_TRAF_CYLD_kr'
p105
sg10
F0.001
sbg11
(g15
S'\x08\xe43\xd5Q\x89\x15?'
p106
tp107
Rp108
tp109
a(g1
(g2
g3
Ntp110
Rp111
(dp112
g7
I01
sg8
S'RIP1_ubiq_kc'
p113
sg10
F0.1
sbg11
(g15
S'v\x1dQv\xeb#s?'
p114
tp115
Rp116
tp117
a(g1
(g2
g3
Ntp118
Rp119
(dp120
g7
I01
sg8
S'RIP1_deub_kc'
p121
sg10
F0.1
sbg11
(g15
S'\x14\xb1\xcb"\xd1I\xa0?'
p122
tp123
Rp124
tp125
a(g1
(g2
g3
Ntp126
Rp127
(dp128
g7
I01
sg8
S'NSC_esta_kc'
p129
sg10
F1e-08
sbg11
(g15
S'\xa5z\xffT\xa1=U>'
p130
tp131
Rp132
tp133
a(g1
(g2
g3
Ntp134
Rp135
(dp136
g7
I01
sg8
S'RIP1_degr_kc'
p137
sg10
F0.1
sbg11
(g15
S'\xf1\xe0\xa7\x92k\xc4\xbb?'
p138
tp139
Rp140
tp141
a(g1
(g2
g3
Ntp142
Rp143
(dp144
g7
I01
sg8
S'k5'
p145
sg10
F1e-06
sbg11
(g15
S'\xc5-\xd3\x1c\x19\xb4\xc7>'
p146
tp147
Rp148
tp149
a(g1
(g2
g3
Ntp150
Rp151
(dp152
g7
I01
sg8
S'k6'
p153
sg10
F0.001
sbg11
(g15
S'\x9d\xb2\x1b\xdf\xbc$\xb6?'
p154
tp155
Rp156
tp157
a(g1
(g2
g3
Ntp158
Rp159
(dp160
g7
I01
sg8
S'TNFR1_FADD_kc_1'
p161
sg10
F0.1
sbg11
(g15
S'\x08\xd4\x9e\x86]\xacb?'
p162
tp163
Rp164
tp165
a(g1
(g2
g3
Ntp166
Rp167
(dp168
g7
I01
sg8
S'TNFR1_FADD_kc_2'
p169
sg10
F0.1
sbg11
(g15
S'i\xde\x04\xf8\xce\xd0\xd2?'
p170
tp171
Rp172
tp173
a(g1
(g2
g3
Ntp174
Rp175
(dp176
g7
I01
sg8
S'bind_FADDANY_proC8_kf'
p177
sg10
F7.27e-06
sbg11
(g15
S'\xd4\xfe\xe3\x1e\xcd\xa9\xc8>'
p178
tp179
Rp180
tp181
a(g1
(g2
g3
Ntp182
Rp183
(dp184
g7
I01
sg8
S'bind_FADDANY_proC8_kr'
p185
sg10
F0.018
sbg11
(g15
S'u\t\xba9\xc9\x14\x8e?'
p186
tp187
Rp188
tp189
a(g1
(g2
g3
Ntp190
Rp191
(dp192
g7
I01
sg8
S'bind_FADD_proC8_2_kf'
p193
sg10
F7.27e-06
sbg11
(g15
S'\x06\tl\x95Fe\xa8>'
p194
tp195
Rp196
tp197
a(g1
(g2
g3
Ntp198
Rp199
(dp200
g7
I01
sg8
S'bind_FADD_proC8_2_kr'
p201
sg10
F0.018
sbg11
(g15
S'\xbe\x9e^\xf7\xd0\xe3\x18?'
p202
tp203
Rp204
tp205
a(g1
(g2
g3
Ntp206
Rp207
(dp208
g7
I01
sg8
S'bind_FADDANY_flip_L_kf'
p209
sg10
F7.27e-05
sbg11
(g15
S'V\xb0\xf9\x15\xaf\xf3\x97?'
p210
tp211
Rp212
tp213
a(g1
(g2
g3
Ntp214
Rp215
(dp216
g7
I01
sg8
S'bind_FADDANY_flip_L_kr'
p217
sg10
F0.018
sbg11
(g15
S'\x92\x057\xbb+\xd1\x92?'
p218
tp219
Rp220
tp221
a(g1
(g2
g3
Ntp222
Rp223
(dp224
g7
I01
sg8
S'bind_FADD_flip_L_2_kf'
p225
sg10
F7.27e-06
sbg11
(g15
S'_Ox\xba\x17\x9a\xac>'
p226
tp227
Rp228
tp229
a(g1
(g2
g3
Ntp230
Rp231
(dp232
g7
I01
sg8
S'bind_FADD_flip_L_2_kr'
p233
sg10
F0.018
sbg11
(g15
S']o\x8c\x91\xcc\x8dd?'
p234
tp235
Rp236
tp237
a(g1
(g2
g3
Ntp238
Rp239
(dp240
g7
I01
sg8
S'bind_FADDANY_flip_S_kf'
p241
sg10
F7.27e-06
sbg11
(g15
S'\x0f\xa0\x1fa\x91\xe4*?'
p242
tp243
Rp244
tp245
a(g1
(g2
g3
Ntp246
Rp247
(dp248
g7
I01
sg8
S'bind_FADDANY_flip_S_kr'
p249
sg10
F0.018
sbg11
(g15
S'\x08\xb7r\xe4\xf56h?'
p250
tp251
Rp252
tp253
a(g1
(g2
g3
Ntp254
Rp255
(dp256
g7
I01
sg8
S'bind_FADD_flip_S_2_kf'
p257
sg10
F7.27e-06
sbg11
(g15
S'r\xf8"\xf0\xdchh?'
p258
tp259
Rp260
tp261
a(g1
(g2
g3
Ntp262
Rp263
(dp264
g7
I01
sg8
S'bind_FADD_flip_S_2_kr'
p265
sg10
F0.018
sbg11
(g15
S'S\x9dO\x02=\x06\x85?'
p266
tp267
Rp268
tp269
a(g1
(g2
g3
Ntp270
Rp271
(dp272
g7
I01
sg8
S'bind_RIP1ANYunmod_RIP3unmod_kf'
p273
sg10
F1e-06
sbg11
(g15
S'\xca\xf58\x83h\xc8\xd5>'
p274
tp275
Rp276
tp277
a(g1
(g2
g3
Ntp278
Rp279
(dp280
g7
I01
sg8
S'bind_RIP1ANYunmod_RIP3unmod_kr'
p281
sg10
F0.001
sbg11
(g15
S'\xb6\xce\x0e9|\xd6\x93?'
p282
tp283
Rp284
tp285
a(g1
(g2
g3
Ntp286
Rp287
(dp288
g7
I01
sg8
S'k19'
p289
sg10
F0.01
sbg11
(g15
S'\x14\xaaw\x8b\\\xbd%?'
p290
tp291
Rp292
tp293
a(g1
(g2
g3
Ntp294
Rp295
(dp296
g7
I01
sg8
S'k20'
p297
sg10
F0.001
sbg11
(g15
S'\xaa\xbe\xd4v\x94}\xfb>'
p298
tp299
Rp300
tp301
a(g1
(g2
g3
Ntp302
Rp303
(dp304
g7
I01
sg8
S'bind_RIP1po4_MLKLunmod_to_RIP1po4MLKLunmod_kf'
p305
sg10
F1e-06
sbg11
(g15
S'npV\x97#4{>'
p306
tp307
Rp308
tp309
a(g1
(g2
g3
Ntp310
Rp311
(dp312
g7
I01
sg8
S'bind_RIP1po4_MLKLunmod_to_RIP1po4MLKLunmod_kr'
p313
sg10
F0.001
sbg11
(g15
S'\x17\xcc{X\xbf\x0f\x01@'
p314
tp315
Rp316
tp317
a(g1
(g2
g3
Ntp318
Rp319
(dp320
g7
I01
sg8
S'catalyze_RIP1po4MLKLunmod_to_RIP1po4_MLKLactive_kc'
p321
sg10
F0.1
sbg11
(g15
S't\xc8_\xc3\xd9!\xe2?'
p322
tp323
Rp324
tp325
a(g1
(g2
g3
Ntp326
Rp327
(dp328
g7
I01
sg8
S'bind_MLKLactive_MLKLunmod_to_MLKLactiveMLKLunmod_kf'
p329
sg10
F1e-07
sbg11
(g15
S'F\xe8\xd7\xba$\x7f\xc4>'
p330
tp331
Rp332
tp333
a(g1
(g2
g3
Ntp334
Rp335
(dp336
g7
I01
sg8
S'bind_MLKLactive_MLKLunmod_to_MLKLactiveMLKLunmod_kr'
p337
sg10
F0.4
sbg11
(g15
S'\x84\xb3}*\xb9\x05\x94?'
p338
tp339
Rp340
tp341
a(g1
(g2
g3
Ntp342
Rp343
(dp344
g7
I01
sg8
S'catalyze_MLKLactiveMLKLunmod_to_MLKLactive_MLKLactive_kc'
p345
sg10
F0.01
sbg11
(g15
S'\xc2\xfb\x90\xd4\x87\x06[?'
p346
tp347
Rp348
tp349
a(g1
(g2
g3
Ntp350
Rp351
(dp352
g7
I01
sg8
S'RIP1_trunc_kcf1'
p353
sg10
F1e-06
sbg11
(g15
S'\x00\xe0\x92O\x8f\xa3\x90>'
p354
tp355
Rp356
tp357
a(g1
(g2
g3
Ntp358
Rp359
(dp360
g7
I01
sg8
S'RIP1_trunc_kcr1'
p361
sg10
F0.001
sbg11
(g15
S'\xa6\xd0\xd6\x0b\xeeJ\xf2>'
p362
tp363
Rp364
tp365
a(g1
(g2
g3
Ntp366
Rp367
(dp368
g7
I01
sg8
S'RIP1_trunc_kc1'
p369
sg10
F0.1
sbg11
(g15
S'\x12\xfd\xf6$\x01\xa0i?'
p370
tp371
Rp372
tp373
a(g1
(g2
g3
Ntp374
Rp375
(dp376
g7
I01
sg8
S'RIP1_trunc_kcf2'
p377
sg10
F1e-06
sbg11
(g15
S'\xb0\xafg(]/\xa8>'
p378
tp379
Rp380
tp381
a(g1
(g2
g3
Ntp382
Rp383
(dp384
g7
I01
sg8
S'RIP1_trunc_kcr2'
p385
sg10
F0.001
sbg11
(g15
S"<h#'J\xb4\x08?"
p386
tp387
Rp388
tp389
a(g1
(g2
g3
Ntp390
Rp391
(dp392
g7
I01
sg8
S'RIP1_trunc_kc2'
p393
sg10
F0.1
sbg11
(g15
S'\t\\\xb9:\x8f\xd9!?'
p394
tp395
Rp396
tp397
a(g1
(g2
g3
Ntp398
Rp399
(dp400
g7
I01
sg8
S'RIP1_trunc_kcf3'
p401
sg10
F1e-06
sbg11
(g15
S'\xb7.\xd09wA!?'
p402
tp403
Rp404
tp405
a(g1
(g2
g3
Ntp406
Rp407
(dp408
g7
I01
sg8
S'RIP1_trunc_kcr3'
p409
sg10
F0.001
sbg11
(g15
S'A\xa9\xa27\x03\x13\x11?'
p410
tp411
Rp412
tp413
a(g1
(g2
g3
Ntp414
Rp415
(dp416
g7
I01
sg8
S'RIP1_trunc_kc3'
p417
sg10
F0.1
sbg11
(g15
S'\xa7\xf2j\x85\xfeU\x8c?'
p418
tp419
Rp420
tp421
a(g1
(g2
g3
Ntp422
Rp423
(dp424
g7
I01
sg8
S'RIP1_trunc_kcf4'
p425
sg10
F1e-06
sbg11
(g15
S'\xbc\xf5\xa1\x10\xcd\xefv>'
p426
tp427
Rp428
tp429
a(g1
(g2
g3
Ntp430
Rp431
(dp432
g7
I01
sg8
S'RIP1_trunc_kcr4'
p433
sg10
F0.001
sbg11
(g15
S'Q\xe8\x12\xda\xabm\xb3?'
p434
tp435
Rp436
tp437
a(g1
(g2
g3
Ntp438
Rp439
(dp440
g7
I01
sg8
S'RIP1_trunc_kc4'
p441
sg10
F0.1
sbg11
(g15
S'\xec\xb6bt\xc6rF@'
p442
tp443
Rp444
tp445
a(g1
(g2
g3
Ntp446
Rp447
(dp448
g7
I01
sg8
S'kc_c8_1'
p449
sg10
I1
sbg11
(g15
S'\x1d@\xb7\xe7v\xb5b?'
p450
tp451
Rp452
tp453
a(g1
(g2
g3
Ntp454
Rp455
(dp456
g7
I01
sg8
S'kc_c8_2'
p457
sg10
I1
sbg11
(g15
S"\n\xfb\xe8'?\xd6\x86?"
p458
tp459
Rp460
tp461
a(g1
(g2
g3
Ntp462
Rp463
(dp464
g7
I01
sg8
S'bind_C8A_RIP1unmod_to_C8ARIP1unmod_kf'
p465
sg10
F1e-06
sbg11
(g15
S'\xba\x8a\xe5\x02Lp\xeb>'
p466
tp467
Rp468
tp469
a(g1
(g2
g3
Ntp470
Rp471
(dp472
g7
I01
sg8
S'bind_C8A_RIP1unmod_to_C8ARIP1unmod_kr'
p473
sg10
F0.001
sbg11
(g15
S'H\xd7=\x8b\x1b(\x01?'
p474
tp475
Rp476
tp477
a(g1
(g2
g3
Ntp478
Rp479
(dp480
g7
I01
sg8
S'catalyze_C8ARIP1unmod_to_C8A_RIP1trunc_kc'
p481
sg10
F0.1
sbg11
(g15
S'L\xa5_\x18\xa1P\xe0?'
p482
tp483
Rp484
tp485
a(g1
(g2
g3
Ntp486
Rp487
(dp488
g7
I01
sg8
S'bind_C8A_RIP3unmod_to_C8ARIP3unmod_kf'
p489
sg10
F1e-06
sbg11
(g15
S'\xa9\x7f\xabL\x07Ht>'
p490
tp491
Rp492
tp493
a(g1
(g2
g3
Ntp494
Rp495
(dp496
g7
I01
sg8
S'bind_C8A_RIP3unmod_to_C8ARIP3unmod_kr'
p497
sg10
F0.001
sbg11
(g15
S'\x01\xd9\xda\x1a\x92"$?'
p498
tp499
Rp500
tp501
a(g1
(g2
g3
Ntp502
Rp503
(dp504
g7
I01
sg8
S'catalyze_C8ARIP3unmod_to_C8A_RIP3trunc_kc'
p505
sg10
F0.1
sbg11
(g15
S'3\xeb$\xbeY5\xa1?'
p506
tp507
Rp508
tp509
a(g1
(g2
g3
Ntp510
Rp511
(dp512
g7
I01
sg8
S'bind_C8A_BidU_to_C8ABidU_kf'
p513
sg10
F1e-06
sbg11
(g15
S'\xad$\n\xbe\xef\xcfo>'
p514
tp515
Rp516
tp517
a(g1
(g2
g3
Ntp518
Rp519
(dp520
g7
I01
sg8
S'bind_C8A_BidU_to_C8ABidU_kr'
p521
sg10
F0.001
sbg11
(g15
S'\xd5nW\xd2\tIN?'
p522
tp523
Rp524
tp525
a(g1
(g2
g3
Ntp526
Rp527
(dp528
g7
I01
sg8
S'catalyze_C8ABidU_to_C8A_BidT_kc'
p529
sg10
F0.1
sbg11
(g15
S'\x11.\x1b;\x15\xfb\xc0?'
p530
tp531
Rp532
tp533
a(g1
(g2
g3
Ntp534
Rp535
(dp536
g7
I01
sg8
S'bind_C8A_CYLDU_to_C8ACYLDU_kf'
p537
sg10
F1e-06
sbg11
(g15
S'.zN\x07)\xd7t>'
p538
tp539
Rp540
tp541
a(g1
(g2
g3
Ntp542
Rp543
(dp544
g7
I01
sg8
S'bind_C8A_CYLDU_to_C8ACYLDU_kr'
p545
sg10
F0.001
sbg11
(g15
S'\x7f\xc0d$]}g?'
p546
tp547
Rp548
tp549
a(g1
(g2
g3
Ntp550
Rp551
(dp552
g7
I01
sg8
S'catalyze_C8ACYLDU_to_C8A_CYLDT_kc'
p553
sg10
F0.1
sbg11
(g15
S'\xecHC\xf1&\x0f\xa8?'
p554
tp555
Rp556
tp557
a(g1
(g2
g3
Ntp558
Rp559
(dp560
g7
I01
sg8
S'bind_NSC_NFkBI_to_NSCNFkBI_kf'
p561
sg10
F1e-06
sbg11
(g15
S'\x9b\x0c!\x99\x01\xce\xbd>'
p562
tp563
Rp564
tp565
a(g1
(g2
g3
Ntp566
Rp567
(dp568
g7
I01
sg8
S'bind_NSC_NFkBI_to_NSCNFkBI_kr'
p569
sg10
F0.001
sbg11
(g15
S'\xd3VB\xfb\xf7\x98\xfc>'
p570
tp571
Rp572
tp573
a(g1
(g2
g3
Ntp574
Rp575
(dp576
g7
I01
sg8
S'catalyze_NSCNFkBI_to_NSC_NFkBA_kc'
p577
sg10
F0.1
sbg11
(g15
S'~\xb3\xd1\x96\xdd\xdf\x06@'
p578
tp579
Rp580
tp581
a(g1
(g2
g3
Ntp582
Rp583
(dp584
g7
I01
sg8
S'NFkB_FlipL'
p585
sg10
F0.01
sbg11
(g15
S'\x93\xee(\x124\xaf\xc7?'
p586
tp587
Rp588
tp589
a(g1
(g2
g3
Ntp590
Rp591
(dp592
g7
I01
sg8
S'NFkB_FlipS'
p593
sg10
F0.01
sbg11
(g15
S'\x93\x8b\xbb\xc4\xee4\xd7?'
p594
tp595
Rp596
tp597
a(g1
(g2
g3
Ntp598
Rp599
(dp600
g7
I01
sg8
S'NFkB_TRAF_kc'
p601
sg10
F0.01
sbg11
(g15
S'6\xcf\xb7^\x8eu\xea>'
p602
tp603
Rp604
tp605
a(g1
(g2
g3
Ntp606
Rp607
(dp608
g7
I01
sg8
S'Degradase_flipL'
p609
sg10
F1e-06
sbg11
(g15
S'\xdeM\xed\xc5\xc2K\xb0>'
p610
tp611
Rp612
tp613
a(g1
(g2
g3
Ntp614
Rp615
(dp616
g7
I01
sg8
S'Degradase_flipS'
p617
sg10
F1e-06
sbg11
(g15
S'~\x15+\xfbD\x1f\xe9>'
p618
tp619
Rp620
tp621
a(g1
(g2
g3
Ntp622
Rp623
(dp624
g7
I01
sg8
S'Degradase_TRAF'
p625
sg10
F1e-06
sbg11
(g15
S'\n\xe4\x14}!sq>'
p626
tp627
Rp628
tp629
a(g1
(g2
g3
Ntp630
Rp631
(dp632
g7
I01
sg8
S'deg_FlipL'
p633
sg10
F5e-06
sbg11
(g15
S'\xff\xf4\xe4\xe4\xe2\xb8Z?'
p634
tp635
Rp636
tp637
a(g1
(g2
g3
Ntp638
Rp639
(dp640
g7
I01
sg8
S'deg_FlipS'
p641
sg10
F5e-06
sbg11
(g15
S'dg7\xaf5e\xd5>'
p642
tp643
Rp644
tp645
a(g1
(g2
g3
Ntp646
Rp647
(dp648
g7
I01
sg8
S'deg_TRAF'
p649
sg10
F5e-06
sbg11
(g15
S'K\xda&4mU\x84>'
p650
tp651
Rp652
tp653
a(g1
(g2
g3
Ntp654
Rp655
(dp656
g7
I01
sg8
S'bind_BidK_BidU_to_BidKBidU_kf'
p657
sg10
F1e-06
sbg11
(g15
S'\xbf\x9c\xfe\xe6c\xe5\xb6>'
p658
tp659
Rp660
tp661
a(g1
(g2
g3
Ntp662
Rp663
(dp664
g7
I01
sg8
S'bind_BidK_BidU_to_BidKBidU_kr'
p665
sg10
F0.001
sbg11
(g15
S'\x9d\x976\xe3\xdf\x13_?'
p666
tp667
Rp668
tp669
a(g1
(g2
g3
Ntp670
Rp671
(dp672
g7
I01
sg8
S'catalyze_BidKBidU_to_BidK_Bidpo4_kc'
p673
sg10
F0.1
sbg11
(g15
S'S\xf1"\xe6\xd1{\xe4?'
p674
tp675
Rp676
tp677
a(g1
(g2
g3
Ntp678
Rp679
(dp680
g7
I01
sg8
S'bind_RIP1unmod_Bidpo4_kf'
p681
sg10
F1e-06
sbg11
(g15
S'\xbd\xd9\xed\x1d\x85 \xc1>'
p682
tp683
Rp684
tp685
a(g1
(g2
g3
Ntp686
Rp687
(dp688
g7
I01
sg8
S'bind_RIP1unmod_Bidpo4_kr'
p689
sg10
F0.001
sbg11
(g15
S'\xdbo\x83\xff\x9ddz?'
p690
tp691
Rp692
tp693
a(g1
(g2
g3
Ntp694
Rp695
(dp696
g7
I01
sg8
S'kbid1'
p697
sg10
F1e-06
sbg11
(g15
S'\x18\xfe\x82\xfc!\xe4\xe1>'
p698
tp699
Rp700
tp701
a(g1
(g2
g3
Ntp702
Rp703
(dp704
g7
I01
sg8
S'kbid2'
p705
sg10
F0.001
sbg11
(g15
S'\xaf\xf45#\xfa\xcf\x92?'
p706
tp707
Rp708
tp709
a(g1
(g2
g3
Ntp710
Rp711
(dp712
g7
I01
sg8
S'kbid5'
p713
sg10
F0.1
sbg11
(g15
S'v\xba\xfd\xe9\xde\xe2\x94?'
p714
tp715
Rp716
tp717
a(g1
(g2
g3
Ntp718
Rp719
(dp720
g7
I01
sg8
S'kbid7'
p721
sg10
F0.1
sbg11
(g15
S'\x8e\xcbGx:f\xad?'
p722
tp723
Rp724
tp725
a(g1
(g2
g3
Ntp726
Rp727
(dp728
g7
I01
sg8
S'bind_C3A_MLKLunmod_to_C3AMLKLunmod_kf'
p729
sg10
F1e-06
sbg11
(g15
S'\x9e\xf0\xe7Pz\xc1\xe2>'
p730
tp731
Rp732
tp733
a(g1
(g2
g3
Ntp734
Rp735
(dp736
g7
I01
sg8
S'bind_C3A_MLKLunmod_to_C3AMLKLunmod_kr'
p737
sg10
F0.001
sbg11
(g15
S'\x94x\xa5`\x0fA\x9c?'
p738
tp739
Rp740
tp741
a(g1
(g2
g3
Ntp742
Rp743
(dp744
g7
I01
sg8
S'catalyze_C3AMLKLunmod_to_C3A_MLKLinactive_kc'
p745
sg10
I1
sbg11
(g15
S'k&tlUv\xe0?'
p746
tp747
Rp748
tp749
a(g1
(g2
g3
Ntp750
Rp751
(dp752
g7
I01
sg8
S'bind_zVad_C8A_kf'
p753
sg10
F1e-06
sbg11
(g15
S'\xc8\xcdL\xb5\xaf+\x1f?'
p754
tp755
Rp756
tp757
a(g1
(g2
g3
Ntp758
Rp759
(dp760
g7
I01
sg8
S'bind_zVad_C8A_kr'
p761
sg10
F0.001
sbg11
(g15
S'E\x10?\xbe_\x86|?'
p762
tp763
Rp764
tp765
a(g1
(g2
g3
Ntp766
Rp767
(dp768
g7
I01
sg8
S'bind_zVad_C3A_kf'
p769
sg10
F1e-06
sbg11
(g15
S'9\x07\x82\xb2!\x03\xc8>'
p770
tp771
Rp772
tp773
a(g1
(g2
g3
Ntp774
Rp775
(dp776
g7
I01
sg8
S'bind_zVad_C3A_kr'
p777
sg10
F0.001
sbg11
(g15
S'\xbf\xb7%"\x99h;?'
p778
tp779
Rp780
tp781
a(g1
(g2
g3
Ntp782
Rp783
(dp784
g7
I01
sg8
S'kzVad1'
p785
sg10
F0.1
sbg11
(g15
S'a\xd0\x89\xdc\xfe\xa4R?'
p786
tp787
Rp788
tp789
a(g1
(g2
g3
Ntp790
Rp791
(dp792
g7
I01
sg8
S'kzVad2'
p793
sg10
F0.1
sbg11
(g15
S'6\x8d\x12\x13\xfb}\xb5?'
p794
tp795
Rp796
tp797
a(g1
(g2
g3
Ntp798
Rp799
(dp800
g7
I01
sg8
S'equilibrate_BidT_to_BidM_kf'
p801
sg10
F0.1
sbg11
(g15
S'8f}\xb0\x9eL\xdc?'
p802
tp803
Rp804
tp805
a(g1
(g2
g3
Ntp806
Rp807
(dp808
g7
I01
sg8
S'equilibrate_BidT_to_BidM_kr'
p809
sg10
F0.001
sbg11
(g15
S'\xf5\xebD7\xb2\xa2v?'
p810
tp811
Rp812
tp813
a(g1
(g2
g3
Ntp814
Rp815
(dp816
g7
I01
sg8
S'equilibrate_BaxC_to_BaxM_kf'
p817
sg10
F0.01
sbg11
(g15
S'\xd1_X\x84z\xc0\x86?'
p818
tp819
Rp820
tp821
a(g1
(g2
g3
Ntp822
Rp823
(dp824
g7
I01
sg8
S'equilibrate_BaxC_to_BaxM_kr'
p825
sg10
F0.01
sbg11
(g15
S'\x08\x87m\xe9t}\xb2?'
p826
tp827
Rp828
tp829
a(g1
(g2
g3
Ntp830
Rp831
(dp832
g7
I01
sg8
S'equilibrate_BclxLC_to_BclxLM_kf'
p833
sg10
F0.01
sbg11
(g15
S'\xd9c\xd1\xff\xa5\x0c-?'
p834
tp835
Rp836
tp837
a(g1
(g2
g3
Ntp838
Rp839
(dp840
g7
I01
sg8
S'equilibrate_BclxLC_to_BclxLM_kr'
p841
sg10
F0.01
sbg11
(g15
S'w\x91J\x8c\xbcv1?'
p842
tp843
Rp844
tp845
a(g1
(g2
g3
Ntp846
Rp847
(dp848
g7
I01
sg8
S'bind_BidM_BaxM_to_BidMBaxM_kf'
p849
sg10
F4.15e-06
sbg11
(g15
S'Y\x8a#\xda\x81\x89\xf2>'
p850
tp851
Rp852
tp853
a(g1
(g2
g3
Ntp854
Rp855
(dp856
g7
I01
sg8
S'bind_BidM_BaxM_to_BidMBaxM_kr'
p857
sg10
F0.002
sbg11
(g15
S'\x82\\\x97\xe1p\x9d\xb1>'
p858
tp859
Rp860
tp861
a(g1
(g2
g3
Ntp862
Rp863
(dp864
g7
I01
sg8
S'catalyze_BidMBaxM_to_BidM_BaxA_kc'
p865
sg10
I1
sbg11
(g15
S'+\xf7\xfd\xcc\xcb\xf6\x0f@'
p866
tp867
Rp868
tp869
a(g1
(g2
g3
Ntp870
Rp871
(dp872
g7
I01
sg8
S'bind_BidM_BakM_to_BidMBakM_kf'
p873
sg10
F4.15e-06
sbg11
(g15
S'\xcd\x7f\xf8\xdcp\xb34?'
p874
tp875
Rp876
tp877
a(g1
(g2
g3
Ntp878
Rp879
(dp880
g7
I01
sg8
S'bind_BidM_BakM_to_BidMBakM_kr'
p881
sg10
F0.002
sbg11
(g15
S'<\xe0\xfb%x\x10#?'
p882
tp883
Rp884
tp885
a(g1
(g2
g3
Ntp886
Rp887
(dp888
g7
I01
sg8
S'catalyze_BidMBakM_to_BidM_BakA_kc'
p889
sg10
I1
sbg11
(g15
S'\x92\xa4\x9f\xe1\x81\x15\xdf?'
p890
tp891
Rp892
tp893
a(g1
(g2
g3
Ntp894
Rp895
(dp896
g7
I01
sg8
S'bind_BidM_Bcl2_kf'
p897
sg10
F4.15e-07
sbg11
(g15
S'\xf67gh\xe4VZ>'
p898
tp899
Rp900
tp901
a(g1
(g2
g3
Ntp902
Rp903
(dp904
g7
I01
sg8
S'bind_BidM_Bcl2_kr'
p905
sg10
F8.3e-09
sbg11
(g15
S'\xdd\x10\xdbA\xfe\xd1\xf2='
p906
tp907
Rp908
tp909
a(g1
(g2
g3
Ntp910
Rp911
(dp912
g7
I01
sg8
S'bind_BidM_BclxLM_kf'
p913
sg10
F4.15e-07
sbg11
(g15
S'\x8f\xfb\x0b\x80\xb6\xa5y>'
p914
tp915
Rp916
tp917
a(g1
(g2
g3
Ntp918
Rp919
(dp920
g7
I01
sg8
S'bind_BidM_BclxLM_kr'
p921
sg10
F8.3e-09
sbg11
(g15
S'\x97\xb1Wv)|2>'
p922
tp923
Rp924
tp925
a(g1
(g2
g3
Ntp926
Rp927
(dp928
g7
I01
sg8
S'bind_BidM_Mcl1M_kf'
p929
sg10
F4.15e-07
sbg11
(g15
S'\xbdJQ\xa9\x9e\xb4\xd7>'
p930
tp931
Rp932
tp933
a(g1
(g2
g3
Ntp934
Rp935
(dp936
g7
I01
sg8
S'bind_BidM_Mcl1M_kr'
p937
sg10
F8.3e-09
sbg11
(g15
S'\x0b\x8d\xac\xa8\xdd\x0f\xcb>'
p938
tp939
Rp940
tp941
a(g1
(g2
g3
Ntp942
Rp943
(dp944
g7
I01
sg8
S'bind_BadM_Bcl2_kf'
p945
sg10
F1.0000000000000002e-06
sbg11
(g15
S'<\xa3\xf0\xd2\xd3\x144?'
p946
tp947
Rp948
tp949
a(g1
(g2
g3
Ntp950
Rp951
(dp952
g7
I01
sg8
S'bind_BadM_Bcl2_kr'
p953
sg10
F0.011
sbg11
(g15
S'4|\xd3<\xba\xcfi?'
p954
tp955
Rp956
tp957
a(g1
(g2
g3
Ntp958
Rp959
(dp960
g7
I01
sg8
S'bind_BadM_BclxLM_kf'
p961
sg10
F1.0000000000000002e-06
sbg11
(g15
S'\x8e\x96\xd26e8\x06?'
p962
tp963
Rp964
tp965
a(g1
(g2
g3
Ntp966
Rp967
(dp968
g7
I01
sg8
S'bind_BadM_BclxLM_kr'
p969
sg10
F0.010000000000000002
sbg11
(g15
S'7\xe3\xcd2\xdc\xaa-?'
p970
tp971
Rp972
tp973
a(g1
(g2
g3
Ntp974
Rp975
(dp976
g7
I01
sg8
S'bind_NoxaM_Mcl1M_kf'
p977
sg10
F1.0000000000000002e-06
sbg11
(g15
S'\x80\x82\xee\x83BP\xd0>'
p978
tp979
Rp980
tp981
a(g1
(g2
g3
Ntp982
Rp983
(dp984
g7
I01
sg8
S'bind_NoxaM_Mcl1M_kr'
p985
sg10
F0.019000000000000003
sbg11
(g15
S'\x9af2:\x0e\xd5F?'
p986
tp987
Rp988
tp989
a(g1
(g2
g3
Ntp990
Rp991
(dp992
g7
I01
sg8
S'bind_BaxA_Bcl2_kf'
p993
sg10
F1.0000000000000002e-06
sbg11
(g15
S'|\xb7s\xfe%\x08\xa1>'
p994
tp995
Rp996
tp997
a(g1
(g2
g3
Ntp998
Rp999
(dp1000
g7
I01
sg8
S'bind_BaxA_Bcl2_kr'
p1001
sg10
F0.010000000000000002
sbg11
(g15
S'\xa3%FA\n=\x8e>'
p1002
tp1003
Rp1004
tp1005
a(g1
(g2
g3
Ntp1006
Rp1007
(dp1008
g7
I01
sg8
S'bind_BaxA_BclxLM_kf'
p1009
sg10
F1.0000000000000002e-06
sbg11
(g15
S'\xceV\x8dIl\x02->'
p1010
tp1011
Rp1012
tp1013
a(g1
(g2
g3
Ntp1014
Rp1015
(dp1016
g7
I01
sg8
S'bind_BaxA_BclxLM_kr'
p1017
sg10
F0.010000000000000002
sbg11
(g15
S'(\x00\x01{\xca\x97\xe6>'
p1018
tp1019
Rp1020
tp1021
a(g1
(g2
g3
Ntp1022
Rp1023
(dp1024
g7
I01
sg8
S'bind_BakA_BclxLM_kf'
p1025
sg10
F1.0000000000000002e-06
sbg11
(g15
S'\x92\x02\xc9\xafZ{U>'
p1026
tp1027
Rp1028
tp1029
a(g1
(g2
g3
Ntp1030
Rp1031
(dp1032
g7
I01
sg8
S'bind_BakA_BclxLM_kr'
p1033
sg10
F0.05
sbg11
(g15
S'9\xdf\xb0\nf\xea\xe0?'
p1034
tp1035
Rp1036
tp1037
a(g1
(g2
g3
Ntp1038
Rp1039
(dp1040
g7
I01
sg8
S'bind_BakA_Mcl1_kf'
p1041
sg10
F1.0000000000000002e-06
sbg11
(g15
S'\xb5\xa3\x8d8\x8bOa>'
p1042
tp1043
Rp1044
tp1045
a(g1
(g2
g3
Ntp1046
Rp1047
(dp1048
g7
I01
sg8
S'bind_BakA_Mcl1_kr'
p1049
sg10
F0.010000000000000002
sbg11
(g15
S'\xdb\xacZ\x0e7\xab\xc0?'
p1050
tp1051
Rp1052
tp1053
a(g1
(g2
g3
Ntp1054
Rp1055
(dp1056
g7
I01
sg8
S'assemble_pore_sequential_Bax_2_kf'
p1057
sg10
F0.0002040816
sbg11
(g15
S'p[\x10\x17\x89\xbc\x17?'
p1058
tp1059
Rp1060
tp1061
a(g1
(g2
g3
Ntp1062
Rp1063
(dp1064
g7
I01
sg8
S'assemble_pore_sequential_Bax_2_kr'
p1065
sg10
F0.001
sbg11
(g15
S'\xe3\xbb\xd4\xbc\xd1\xf8\x97?'
p1066
tp1067
Rp1068
tp1069
a(g1
(g2
g3
Ntp1070
Rp1071
(dp1072
g7
I01
sg8
S'assemble_pore_sequential_Bax_3_kf'
p1073
sg10
F0.0002040816
sbg11
(g15
S'\xe1\x10\x0c\xc2\x17\xa7T?'
p1074
tp1075
Rp1076
tp1077
a(g1
(g2
g3
Ntp1078
Rp1079
(dp1080
g7
I01
sg8
S'assemble_pore_sequential_Bax_3_kr'
p1081
sg10
F0.001
sbg11
(g15
S'%FA\xb0\xeb\xbf\x96?'
p1082
tp1083
Rp1084
tp1085
a(g1
(g2
g3
Ntp1086
Rp1087
(dp1088
g7
I01
sg8
S'assemble_pore_sequential_Bax_4_kf'
p1089
sg10
F0.0002040816
sbg11
(g15
S'\x10\xd7\x8d\x99\xb1S\xdc>'
p1090
tp1091
Rp1092
tp1093
a(g1
(g2
g3
Ntp1094
Rp1095
(dp1096
g7
I01
sg8
S'assemble_pore_sequential_Bax_4_kr'
p1097
sg10
F0.001
sbg11
(g15
S'\x82\xd6\x82\x95Z%\xa3?'
p1098
tp1099
Rp1100
tp1101
a(g1
(g2
g3
Ntp1102
Rp1103
(dp1104
g7
I01
sg8
S'assemble_pore_sequential_Bak_2_kf'
p1105
sg10
F0.0002040816
sbg11
(g15
S'd\xf2\x86{y\x94\xd7>'
p1106
tp1107
Rp1108
tp1109
a(g1
(g2
g3
Ntp1110
Rp1111
(dp1112
g7
I01
sg8
S'assemble_pore_sequential_Bak_2_kr'
p1113
sg10
F0.001
sbg11
(g15
S'\xa5;\x11\x95\x7f5`?'
p1114
tp1115
Rp1116
tp1117
a(g1
(g2
g3
Ntp1118
Rp1119
(dp1120
g7
I01
sg8
S'assemble_pore_sequential_Bak_3_kf'
p1121
sg10
F0.0002040816
sbg11
(g15
S'\xed\xfb\x0e\xe7/H\xdd>'
p1122
tp1123
Rp1124
tp1125
a(g1
(g2
g3
Ntp1126
Rp1127
(dp1128
g7
I01
sg8
S'assemble_pore_sequential_Bak_3_kr'
p1129
sg10
F0.001
sbg11
(g15
S'TO\xf8\xfd\xbe\x94\x90?'
p1130
tp1131
Rp1132
tp1133
a(g1
(g2
g3
Ntp1134
Rp1135
(dp1136
g7
I01
sg8
S'assemble_pore_sequential_Bak_4_kf'
p1137
sg10
F0.0002040816
sbg11
(g15
S'\xe4\x9d\xeb\x8c\x01\x85:?'
p1138
tp1139
Rp1140
tp1141
a(g1
(g2
g3
Ntp1142
Rp1143
(dp1144
g7
I01
sg8
S'assemble_pore_sequential_Bak_4_kr'
p1145
sg10
F0.001
sbg11
(g15
S'e<T\x93\xedyU?'
p1146
tp1147
Rp1148
tp1149
a(g1
(g2
g3
Ntp1150
Rp1151
(dp1152
g7
I01
sg8
S'pore_transport_complex_BaxA_4_CytoCM_kf'
p1153
sg10
F2.857143e-05
sbg11
(g15
S'\x9ap\xc7\x95\x841D?'
p1154
tp1155
Rp1156
tp1157
a(g1
(g2
g3
Ntp1158
Rp1159
(dp1160
g7
I01
sg8
S'pore_transport_complex_BaxA_4_CytoCM_kr'
p1161
sg10
F0.001
sbg11
(g15
S'\x12\xcd\x81\xa0\x93e\x87?'
p1162
tp1163
Rp1164
tp1165
a(g1
(g2
g3
Ntp1166
Rp1167
(dp1168
g7
I01
sg8
S'pore_transport_dissociate_BaxA_4_CytoCC_kc'
p1169
sg10
I10
sbg11
(g15
S'\x04\x81\xa8\xca\xe2\x16R@'
p1170
tp1171
Rp1172
tp1173
a(g1
(g2
g3
Ntp1174
Rp1175
(dp1176
g7
I01
sg8
S'pore_transport_complex_BaxA_4_SmacM_kf'
p1177
sg10
F2.857143e-05
sbg11
(g15
S',\xc5k\xc1<M0?'
p1178
tp1179
Rp1180
tp1181
a(g1
(g2
g3
Ntp1182
Rp1183
(dp1184
g7
I01
sg8
S'pore_transport_complex_BaxA_4_SmacM_kr'
p1185
sg10
F0.001
sbg11
(g15
S'\x8a3\xc4\xae\xf2u\xa5?'
p1186
tp1187
Rp1188
tp1189
a(g1
(g2
g3
Ntp1190
Rp1191
(dp1192
g7
I01
sg8
S'pore_transport_dissociate_BaxA_4_SmacC_kc'
p1193
sg10
I10
sbg11
(g15
S'\x80\xee\xa2\x0c\x08|y@'
p1194
tp1195
Rp1196
tp1197
a(g1
(g2
g3
Ntp1198
Rp1199
(dp1200
g7
I01
sg8
S'pore_transport_complex_BakA_4_CytoCM_kf'
p1201
sg10
F2.857143e-05
sbg11
(g15
S'94\x02\x99\x87\xb3;?'
p1202
tp1203
Rp1204
tp1205
a(g1
(g2
g3
Ntp1206
Rp1207
(dp1208
g7
I01
sg8
S'pore_transport_complex_BakA_4_CytoCM_kr'
p1209
sg10
F0.001
sbg11
(g15
S'\x08\xfe\x8f\x9cd\x93\xbc?'
p1210
tp1211
Rp1212
tp1213
a(g1
(g2
g3
Ntp1214
Rp1215
(dp1216
g7
I01
sg8
S'pore_transport_dissociate_BakA_4_CytoCC_kc'
p1217
sg10
I10
sbg11
(g15
S'\xb1\xe6<\xfb\x1e\xa0\xfe?'
p1218
tp1219
Rp1220
tp1221
a(g1
(g2
g3
Ntp1222
Rp1223
(dp1224
g7
I01
sg8
S'pore_transport_complex_BakA_4_SmacM_kf'
p1225
sg10
F2.857143e-05
sbg11
(g15
S'2w|0F\xc2\xa6>'
p1226
tp1227
Rp1228
tp1229
a(g1
(g2
g3
Ntp1230
Rp1231
(dp1232
g7
I01
sg8
S'pore_transport_complex_BakA_4_SmacM_kr'
p1233
sg10
F0.001
sbg11
(g15
S'\xd5w\x82q\x87\xc9\xb8>'
p1234
tp1235
Rp1236
tp1237
a(g1
(g2
g3
Ntp1238
Rp1239
(dp1240
g7
I01
sg8
S'pore_transport_dissociate_BakA_4_SmacC_kc'
p1241
sg10
I10
sbg11
(g15
S'S\x99\x05\x8f5\xe4\x0e@'
p1242
tp1243
Rp1244
tp1245
a(g1
(g2
g3
Ntp1246
Rp1247
(dp1248
g7
I01
sg8
S'equilibrate_SmacC_to_SmacA_kf'
p1249
sg10
F0.01
sbg11
(g15
S'\xe3\xd9U\x86\x8c\xf6X?'
p1250
tp1251
Rp1252
tp1253
a(g1
(g2
g3
Ntp1254
Rp1255
(dp1256
g7
I01
sg8
S'equilibrate_SmacC_to_SmacA_kr'
p1257
sg10
F0.01
sbg11
(g15
S'n\xe8\xd2\xa3\xbem|?'
p1258
tp1259
Rp1260
tp1261
a(g1
(g2
g3
Ntp1262
Rp1263
(dp1264
g7
I01
sg8
S'equilibrate_CytoCC_to_CytoCA_kf'
p1265
sg10
F0.01
sbg11
(g15
S'n\xa9ik]\x05\xbc>'
p1266
tp1267
Rp1268
tp1269
a(g1
(g2
g3
Ntp1270
Rp1271
(dp1272
g7
I01
sg8
S'equilibrate_CytoCC_to_CytoCA_kr'
p1273
sg10
F0.01
sbg11
(g15
S'\xdb\x14D\xa0\x83\xc3\x19?'
p1274
tp1275
Rp1276
tp1277
a(g1
(g2
g3
Ntp1278
Rp1279
(dp1280
g7
I01
sg8
S'bind_CytoCA_ApafI_to_CytoCAApafI_kf'
p1281
sg10
F5.77e-10
sbg11
(g15
S'\xa9\xffE\xdaH"*>'
p1282
tp1283
Rp1284
tp1285
a(g1
(g2
g3
Ntp1286
Rp1287
(dp1288
g7
I01
sg8
S'bind_CytoCA_ApafI_to_CytoCAApafI_kr'
p1289
sg10
F0.0057
sbg11
(g15
S"'\xfd\x18$U\x0e\xc4?"
p1290
tp1291
Rp1292
tp1293
a(g1
(g2
g3
Ntp1294
Rp1295
(dp1296
g7
I01
sg8
S'catalyze_CytoCAApafI_to_CytoCA_ApafA_kc'
p1297
sg10
I1
sbg11
(g15
S'/:`\xa8\xab\xf3Q@'
p1298
tp1299
Rp1300
tp1301
a(g1
(g2
g3
Ntp1302
Rp1303
(dp1304
g7
I01
sg8
S'convert_ApafA_C9_to_Apop_kf'
p1305
sg10
F5.9e-07
sbg11
(g15
S'a\x03\xf2BNQ\xa0>'
p1306
tp1307
Rp1308
tp1309
a(g1
(g2
g3
Ntp1310
Rp1311
(dp1312
g7
I01
sg8
S'convert_ApafA_C9_to_Apop_kr'
p1313
sg10
F0.07493
sbg11
(g15
S"'\x04\x87\xe1lu\xfd?"
p1314
tp1315
Rp1316
tp1317
a(g1
(g2
g3
Ntp1318
Rp1319
(dp1320
g7
I01
sg8
S'bind_Apop_C3pro_to_ApopC3pro_kf'
p1321
sg10
F9.15e-07
sbg11
(g15
S'SPqO\xd2\xb9\xc3>'
p1322
tp1323
Rp1324
tp1325
a(g1
(g2
g3
Ntp1326
Rp1327
(dp1328
g7
I01
sg8
S'bind_Apop_C3pro_to_ApopC3pro_kr'
p1329
sg10
F0.1
sbg11
(g15
S'\xff\xdaD\x01\x94\xcb\xe2?'
p1330
tp1331
Rp1332
tp1333
a(g1
(g2
g3
Ntp1334
Rp1335
(dp1336
g7
I01
sg8
S'catalyze_ApopC3pro_to_Apop_C3A_kc'
p1337
sg10
F0.7
sbg11
(g15
S'`\xca{\xa7z\x94\xa3?'
p1338
tp1339
Rp1340
tp1341
a(g1
(g2
g3
Ntp1342
Rp1343
(dp1344
g7
I01
sg8
S'bind_Apop_XIAP_kf'
p1345
sg10
F2e-06
sbg11
(g15
S'*{{L\x13\xad\x14>'
p1346
tp1347
Rp1348
tp1349
a(g1
(g2
g3
Ntp1350
Rp1351
(dp1352
g7
I01
sg8
S'bind_Apop_XIAP_kr'
p1353
sg10
F0.001
sbg11
(g15
S'\xacLW\xfa\xcd\xcb\xb3>'
p1354
tp1355
Rp1356
tp1357
a(g1
(g2
g3
Ntp1358
Rp1359
(dp1360
g7
I01
sg8
S'bind_SmacA_XIAP_kf'
p1361
sg10
F1.45e-05
sbg11
(g15
S'>\x92M\xf1,3\xa7>'
p1362
tp1363
Rp1364
tp1365
a(g1
(g2
g3
Ntp1366
Rp1367
(dp1368
g7
I01
sg8
S'bind_SmacA_XIAP_kr'
p1369
sg10
F0.00221
sbg11
(g15
S'3a\xe8\xaa\x8b\x8e\xae?'
p1370
tp1371
Rp1372
tp1373
a(g1
(g2
g3
Ntp1374
Rp1375
(dp1376
g7
I01
sg8
S'bind_C8A_C3pro_to_C8AC3pro_kf'
p1377
sg10
F1e-07
sbg11
(g15
S'\x06D;\xdfS\\\x90>'
p1378
tp1379
Rp1380
tp1381
a(g1
(g2
g3
Ntp1382
Rp1383
(dp1384
g7
I01
sg8
S'bind_C8A_C3pro_to_C8AC3pro_kr'
p1385
sg10
F0.001
sbg11
(g15
S';\xd4$\xe62\x9f\xd3>'
p1386
tp1387
Rp1388
tp1389
a(g1
(g2
g3
Ntp1390
Rp1391
(dp1392
g7
I01
sg8
S'catalyze_C8AC3pro_to_C8A_C3A_kc'
p1393
sg10
I1
sbg11
(g15
S'm\xed;x\rL\xcb?'
p1394
tp1395
Rp1396
tp1397
a(g1
(g2
g3
Ntp1398
Rp1399
(dp1400
g7
I01
sg8
S'bind_XIAP_C3A_to_XIAPC3A_kf'
p1401
sg10
F1e-06
sbg11
(g15
S'\x83\xe3q&Z\x08\x99>'
p1402
tp1403
Rp1404
tp1405
a(g1
(g2
g3
Ntp1406
Rp1407
(dp1408
g7
I01
sg8
S'bind_XIAP_C3A_to_XIAPC3A_kr'
p1409
sg10
F0.001
sbg11
(g15
S"<\x9a\x12\xb9'\xb3I?"
p1410
tp1411
Rp1412
tp1413
a(g1
(g2
g3
Ntp1414
Rp1415
(dp1416
g7
I01
sg8
S'catalyze_XIAPC3A_to_XIAP_C3ub_kc'
p1417
sg10
F0.1
sbg11
(g15
S'\x0cL.\xd8\x89\xfc\xb5?'
p1418
tp1419
Rp1420
tp1421
a(g1
(g2
g3
Ntp1422
Rp1423
(dp1424
g7
I01
sg8
S'bind_C3A_PARPU_to_C3APARPU_kf'
p1425
sg10
F1e-06
sbg11
(g15
S'\x89\xe9Q\xb2\xf3U\x05?'
p1426
tp1427
Rp1428
tp1429
a(g1
(g2
g3
Ntp1430
Rp1431
(dp1432
g7
I01
sg8
S'bind_C3A_PARPU_to_C3APARPU_kr'
p1433
sg10
F0.01
sbg11
(g15
S'\xbb\x92F\n\x1e.\xc0?'
p1434
tp1435
Rp1436
tp1437
a(g1
(g2
g3
Ntp1438
Rp1439
(dp1440
g7
I01
sg8
S'catalyze_C3APARPU_to_C3A_PARPC_kc'
p1441
sg10
I1
sbg11
(g15
S'V;h\xf7\x9a_\x82@'
p1442
tp1443
Rp1444
tp1445
a(g1
(g2
g3
Ntp1446
Rp1447
(dp1448
g7
I01
sg8
S'kf51'
p1449
sg10
F1e-06
sbg11
(g15
S'\xa5\xad\xf1u\xeeM5>'
p1450
tp1451
Rp1452
tp1453
a(g1
(g2
g3
Ntp1454
Rp1455
(dp1456
g7
I01
sg8
S'kr51'
p1457
sg10
F0.001
sbg11
(g15
S'\xd1B\xe2\x15\x97\xbdB?'
p1458
tp1459
Rp1460
tp1461
a(g1
(g2
g3
Ntp1462
Rp1463
(dp1464
g7
I01
sg8
S'kf52'
p1465
sg10
F1e-06
sbg11
(g15
S'\xc4\x19"\x05e\xe5\xe5>'
p1466
tp1467
Rp1468
tp1469
a(g1
(g2
g3
Ntp1470
Rp1471
(dp1472
g7
I01
sg8
S'kr52'
p1473
sg10
F0.001
sbg11
(g15
S"'p.\xech\xb1X?"
p1474
tp1475
Rp1476
tp1477
a(g1
(g2
g3
Ntp1478
Rp1479
(dp1480
g7
I01
sg8
S'kc52'
p1481
sg10
I1
sbg11
(g15
S'h\x95\xed\xd4\x18\x97\xa7?'
p1482
tp1483
Rp1484
tp1485
a(g1
(g2
g3
Ntp1486
Rp1487
(dp1488
g7
I01
sg8
S'bind_C3A_C6pro_to_C3AC6pro_kf'
p1489
sg10
F1e-06
sbg11
(g15
S'c\xb5\x956\x83\xa2\x18?'
p1490
tp1491
Rp1492
tp1493
a(g1
(g2
g3
Ntp1494
Rp1495
(dp1496
g7
I01
sg8
S'bind_C3A_C6pro_to_C3AC6pro_kr'
p1497
sg10
F0.001
sbg11
(g15
S'{3\x9c\xdcQYn?'
p1498
tp1499
Rp1500
tp1501
a(g1
(g2
g3
Ntp1502
Rp1503
(dp1504
g7
I01
sg8
S'catalyze_C3AC6pro_to_C3A_C6A_kc'
p1505
sg10
I1
sbg11
(g15
S'}\x18y<\x85>"@'
p1506
tp1507
Rp1508
tp1509
a.